ARM GAS  C:\Users\esben\AppData\Local\Temp\cc73CMqV.s 			page 1


   1              		.syntax unified
   2              		.cpu cortex-m3
   3              		.fpu softvfp
   4              		.eabi_attribute 20, 1
   5              		.eabi_attribute 21, 1
   6              		.eabi_attribute 23, 3
   7              		.eabi_attribute 24, 1
   8              		.eabi_attribute 25, 1
   9              		.eabi_attribute 26, 1
  10              		.eabi_attribute 30, 1
  11              		.eabi_attribute 34, 1
  12              		.eabi_attribute 18, 4
  13              		.thumb
  14              		.syntax unified
  15              		.file	"main.c"
  16              		.text
  17              	.Ltext0:
  18              		.cfi_sections	.debug_frame
  19              		.section	.text.main,"ax",%progbits
  20              		.align	2
  21              		.global	main
  22              		.thumb
  23              		.thumb_func
  24              		.type	main, %function
  25              	main:
  26              	.LFB63:
  27              		.file 1 "main.c"
   1:main.c        **** /* ========================================
   2:main.c        ****  *
   3:main.c        ****  * Copyright YOUR COMPANY, THE YEAR
   4:main.c        ****  * All Rights Reserved
   5:main.c        ****  * UNPUBLISHED, LICENSED SOFTWARE.
   6:main.c        ****  *
   7:main.c        ****  * CONFIDENTIAL AND PROPRIETARY INFORMATION
   8:main.c        ****  * WHICH IS THE PROPERTY OF your company.
   9:main.c        ****  *
  10:main.c        ****  * ========================================
  11:main.c        **** */
  12:main.c        **** #include "project.h"
  13:main.c        **** #include <stdint.h>
  14:main.c        **** 
  15:main.c        **** CY_ISR_PROTO(ISR_UART_rx_handler);
  16:main.c        **** void handleByteReceived(uint8_t byteReceived);
  17:main.c        **** void decreaseSpeed(void);
  18:main.c        **** void increaseSpeed(void);
  19:main.c        **** void driveForwards(void);
  20:main.c        **** void driveBackwards(void);
  21:main.c        **** void stop(void);
  22:main.c        **** 
  23:main.c        **** int main(void)
  24:main.c        **** {
  28              		.loc 1 24 0
  29              		.cfi_startproc
  30              		@ Volatile: function does not return.
  31              		@ args = 0, pretend = 0, frame = 0
  32              		@ frame_needed = 0, uses_anonymous_args = 0
  33 0000 08B5     		push	{r3, lr}
ARM GAS  C:\Users\esben\AppData\Local\Temp\cc73CMqV.s 			page 2


  34              		.cfi_def_cfa_offset 8
  35              		.cfi_offset 3, -8
  36              		.cfi_offset 14, -4
  25:main.c        ****     CyGlobalIntEnable; /* Enable global interrupts. */
  37              		.loc 1 25 0
  38              		.syntax unified
  39              	@ 25 "main.c" 1
  40 0002 62B6     		CPSIE   i
  41              	@ 0 "" 2
  26:main.c        **** 
  27:main.c        ****     /* Place your initialization/startup code here (e.g. MyInst_Start()) */
  28:main.c        ****     isr_uart_rx_StartEx(ISR_UART_rx_handler);
  42              		.loc 1 28 0
  43              		.thumb
  44              		.syntax unified
  45 0004 0C48     		ldr	r0, .L4
  46 0006 FFF7FEFF 		bl	isr_uart_rx_StartEx
  47              	.LVL0:
  29:main.c        ****     UART_1_Start();
  48              		.loc 1 29 0
  49 000a FFF7FEFF 		bl	UART_1_Start
  50              	.LVL1:
  30:main.c        ****     PWM_1_Start();
  51              		.loc 1 30 0
  52 000e FFF7FEFF 		bl	PWM_1_Start
  53              	.LVL2:
  31:main.c        ****     
  32:main.c        ****     
  33:main.c        ****     UART_1_PutString("DC-Motor-PWM application started\r\n");
  54              		.loc 1 33 0
  55 0012 0A48     		ldr	r0, .L4+4
  56 0014 FFF7FEFF 		bl	UART_1_PutString
  57              	.LVL3:
  34:main.c        ****     UART_1_PutString("0: Stop\r\n");
  58              		.loc 1 34 0
  59 0018 0948     		ldr	r0, .L4+8
  60 001a FFF7FEFF 		bl	UART_1_PutString
  61              	.LVL4:
  35:main.c        ****     UART_1_PutString("1: Drive forwards\r\n");
  62              		.loc 1 35 0
  63 001e 0948     		ldr	r0, .L4+12
  64 0020 FFF7FEFF 		bl	UART_1_PutString
  65              	.LVL5:
  36:main.c        ****     UART_1_PutString("2: Drive backwards\r\n");
  66              		.loc 1 36 0
  67 0024 0848     		ldr	r0, .L4+16
  68 0026 FFF7FEFF 		bl	UART_1_PutString
  69              	.LVL6:
  37:main.c        ****     UART_1_PutString("q: Decrease speed\r\n");
  70              		.loc 1 37 0
  71 002a 0848     		ldr	r0, .L4+20
  72 002c FFF7FEFF 		bl	UART_1_PutString
  73              	.LVL7:
  38:main.c        ****     UART_1_PutString("w: Increase speed\r\n");
  74              		.loc 1 38 0
  75 0030 0748     		ldr	r0, .L4+24
  76 0032 FFF7FEFF 		bl	UART_1_PutString
ARM GAS  C:\Users\esben\AppData\Local\Temp\cc73CMqV.s 			page 3


  77              	.LVL8:
  78              	.L2:
  79 0036 FEE7     		b	.L2
  80              	.L5:
  81              		.align	2
  82              	.L4:
  83 0038 00000000 		.word	ISR_UART_rx_handler
  84 003c 00000000 		.word	.LC0
  85 0040 24000000 		.word	.LC1
  86 0044 30000000 		.word	.LC2
  87 0048 44000000 		.word	.LC3
  88 004c 5C000000 		.word	.LC4
  89 0050 70000000 		.word	.LC5
  90              		.cfi_endproc
  91              	.LFE63:
  92              		.size	main, .-main
  93              		.section	.text.decreaseSpeed,"ax",%progbits
  94              		.align	2
  95              		.global	decreaseSpeed
  96              		.thumb
  97              		.thumb_func
  98              		.type	decreaseSpeed, %function
  99              	decreaseSpeed:
 100              	.LFB66:
  39:main.c        **** 
  40:main.c        ****     for(;;)
  41:main.c        ****     {
  42:main.c        ****         /* Place your application code here. */
  43:main.c        ****     }
  44:main.c        **** }
  45:main.c        **** 
  46:main.c        **** CY_ISR(ISR_UART_rx_handler)
  47:main.c        **** {
  48:main.c        ****     uint8_t bytesToRead = UART_1_GetRxBufferSize();
  49:main.c        ****     while (bytesToRead > 0)
  50:main.c        ****     {
  51:main.c        ****         uint8_t byteReceived = UART_1_ReadRxData();
  52:main.c        ****         UART_1_WriteTxData(byteReceived); // echo back
  53:main.c        ****         
  54:main.c        ****         handleByteReceived(byteReceived);
  55:main.c        ****         
  56:main.c        ****         bytesToRead--;
  57:main.c        ****     }
  58:main.c        **** }
  59:main.c        **** 
  60:main.c        **** void handleByteReceived(uint8_t byteReceived)
  61:main.c        **** {
  62:main.c        ****     switch(byteReceived)
  63:main.c        ****     {
  64:main.c        ****         case 'q' :
  65:main.c        ****         {
  66:main.c        ****             decreaseSpeed();
  67:main.c        ****         }
  68:main.c        ****         break;
  69:main.c        ****         case 'w' :
  70:main.c        ****         {
  71:main.c        ****             increaseSpeed();
ARM GAS  C:\Users\esben\AppData\Local\Temp\cc73CMqV.s 			page 4


  72:main.c        ****         }
  73:main.c        ****         break;
  74:main.c        ****         case '1' :
  75:main.c        ****         {
  76:main.c        ****             driveForwards();
  77:main.c        ****         }
  78:main.c        ****         break;
  79:main.c        ****         case '2' :
  80:main.c        ****         {
  81:main.c        ****             driveBackwards();
  82:main.c        ****         }
  83:main.c        ****         break;
  84:main.c        ****         case '0' :
  85:main.c        ****         {
  86:main.c        ****             stop();
  87:main.c        ****             
  88:main.c        ****         }
  89:main.c        ****         break;
  90:main.c        ****         default :
  91:main.c        ****         {
  92:main.c        ****             // nothing
  93:main.c        ****         }
  94:main.c        ****         break;
  95:main.c        ****     }
  96:main.c        **** }
  97:main.c        **** 
  98:main.c        **** void decreaseSpeed()
  99:main.c        **** {
 101              		.loc 1 99 0
 102              		.cfi_startproc
 103              		@ args = 0, pretend = 0, frame = 0
 104              		@ frame_needed = 0, uses_anonymous_args = 0
 105 0000 08B5     		push	{r3, lr}
 106              		.cfi_def_cfa_offset 8
 107              		.cfi_offset 3, -8
 108              		.cfi_offset 14, -4
 100:main.c        ****     UART_1_PutString("\rDecreasing speed          ");
 109              		.loc 1 100 0
 110 0002 0648     		ldr	r0, .L8
 111 0004 FFF7FEFF 		bl	UART_1_PutString
 112              	.LVL9:
 101:main.c        ****     int8_t cmpValue = PWM_1_ReadCompare() - 10;
 113              		.loc 1 101 0
 114 0008 FFF7FEFF 		bl	PWM_1_ReadCompare
 115              	.LVL10:
 116 000c 0A38     		subs	r0, r0, #10
 117 000e 40B2     		sxtb	r0, r0
 118              	.LVL11:
 102:main.c        ****     cmpValue = cmpValue <= 0 ? 0 : cmpValue; // cap cmpValue at 0
 119              		.loc 1 102 0
 120 0010 20EAE070 		bic	r0, r0, r0, asr #31
 121              	.LVL12:
 103:main.c        ****     PWM_1_WriteCompare(cmpValue);
 122              		.loc 1 103 0
 123 0014 C0B2     		uxtb	r0, r0
 124 0016 FFF7FEFF 		bl	PWM_1_WriteCompare
 125              	.LVL13:
ARM GAS  C:\Users\esben\AppData\Local\Temp\cc73CMqV.s 			page 5


 126 001a 08BD     		pop	{r3, pc}
 127              	.L9:
 128              		.align	2
 129              	.L8:
 130 001c 84000000 		.word	.LC6
 131              		.cfi_endproc
 132              	.LFE66:
 133              		.size	decreaseSpeed, .-decreaseSpeed
 134              		.section	.text.increaseSpeed,"ax",%progbits
 135              		.align	2
 136              		.global	increaseSpeed
 137              		.thumb
 138              		.thumb_func
 139              		.type	increaseSpeed, %function
 140              	increaseSpeed:
 141              	.LFB67:
 104:main.c        ****     
 105:main.c        **** }
 106:main.c        **** 
 107:main.c        **** void increaseSpeed()
 108:main.c        **** {
 142              		.loc 1 108 0
 143              		.cfi_startproc
 144              		@ args = 0, pretend = 0, frame = 0
 145              		@ frame_needed = 0, uses_anonymous_args = 0
 146 0000 08B5     		push	{r3, lr}
 147              		.cfi_def_cfa_offset 8
 148              		.cfi_offset 3, -8
 149              		.cfi_offset 14, -4
 109:main.c        ****     UART_1_PutString("\rIncreasing speed          ");
 150              		.loc 1 109 0
 151 0002 0648     		ldr	r0, .L12
 152 0004 FFF7FEFF 		bl	UART_1_PutString
 153              	.LVL14:
 110:main.c        ****     uint8_t cmpValue = PWM_1_ReadCompare() + 10;
 154              		.loc 1 110 0
 155 0008 FFF7FEFF 		bl	PWM_1_ReadCompare
 156              	.LVL15:
 157 000c 0A30     		adds	r0, r0, #10
 158 000e C0B2     		uxtb	r0, r0
 159              	.LVL16:
 111:main.c        ****     cmpValue = cmpValue >= 100 ? 100 : cmpValue; // cap cmpValue at 100
 112:main.c        ****     PWM_1_WriteCompare(cmpValue);
 160              		.loc 1 112 0
 161 0010 6428     		cmp	r0, #100
 162 0012 28BF     		it	cs
 163 0014 6420     		movcs	r0, #100
 164              	.LVL17:
 165 0016 FFF7FEFF 		bl	PWM_1_WriteCompare
 166              	.LVL18:
 167 001a 08BD     		pop	{r3, pc}
 168              	.L13:
 169              		.align	2
 170              	.L12:
 171 001c A0000000 		.word	.LC7
 172              		.cfi_endproc
 173              	.LFE67:
ARM GAS  C:\Users\esben\AppData\Local\Temp\cc73CMqV.s 			page 6


 174              		.size	increaseSpeed, .-increaseSpeed
 175              		.section	.text.driveForwards,"ax",%progbits
 176              		.align	2
 177              		.global	driveForwards
 178              		.thumb
 179              		.thumb_func
 180              		.type	driveForwards, %function
 181              	driveForwards:
 182              	.LFB68:
 113:main.c        **** }
 114:main.c        **** 
 115:main.c        **** void driveForwards()
 116:main.c        **** {
 183              		.loc 1 116 0
 184              		.cfi_startproc
 185              		@ args = 0, pretend = 0, frame = 0
 186              		@ frame_needed = 0, uses_anonymous_args = 0
 187 0000 08B5     		push	{r3, lr}
 188              		.cfi_def_cfa_offset 8
 189              		.cfi_offset 3, -8
 190              		.cfi_offset 14, -4
 117:main.c        ****     UART_1_PutString("\rSet direction: forwards   ");
 191              		.loc 1 117 0
 192 0002 0848     		ldr	r0, .L16
 193 0004 FFF7FEFF 		bl	UART_1_PutString
 194              	.LVL19:
 118:main.c        ****     Pin_IN2_Write(0);
 195              		.loc 1 118 0
 196 0008 0020     		movs	r0, #0
 197 000a FFF7FEFF 		bl	Pin_IN2_Write
 198              	.LVL20:
 119:main.c        ****     Pin_IN1_Write(1);
 199              		.loc 1 119 0
 200 000e 0120     		movs	r0, #1
 201 0010 FFF7FEFF 		bl	Pin_IN1_Write
 202              	.LVL21:
 120:main.c        ****     UART_1_PutChar(Pin_IN1_Read());
 203              		.loc 1 120 0
 204 0014 FFF7FEFF 		bl	Pin_IN1_Read
 205              	.LVL22:
 206 0018 FFF7FEFF 		bl	UART_1_PutChar
 207              	.LVL23:
 121:main.c        ****     PWM_1_Start();
 208              		.loc 1 121 0
 209 001c FFF7FEFF 		bl	PWM_1_Start
 210              	.LVL24:
 211 0020 08BD     		pop	{r3, pc}
 212              	.L17:
 213 0022 00BF     		.align	2
 214              	.L16:
 215 0024 BC000000 		.word	.LC8
 216              		.cfi_endproc
 217              	.LFE68:
 218              		.size	driveForwards, .-driveForwards
 219              		.section	.text.driveBackwards,"ax",%progbits
 220              		.align	2
 221              		.global	driveBackwards
ARM GAS  C:\Users\esben\AppData\Local\Temp\cc73CMqV.s 			page 7


 222              		.thumb
 223              		.thumb_func
 224              		.type	driveBackwards, %function
 225              	driveBackwards:
 226              	.LFB69:
 122:main.c        **** }
 123:main.c        **** 
 124:main.c        **** void driveBackwards()
 125:main.c        **** {
 227              		.loc 1 125 0
 228              		.cfi_startproc
 229              		@ args = 0, pretend = 0, frame = 0
 230              		@ frame_needed = 0, uses_anonymous_args = 0
 231 0000 08B5     		push	{r3, lr}
 232              		.cfi_def_cfa_offset 8
 233              		.cfi_offset 3, -8
 234              		.cfi_offset 14, -4
 126:main.c        ****     UART_1_PutString("\rSet direction: backwards  ");
 235              		.loc 1 126 0
 236 0002 0748     		ldr	r0, .L20
 237 0004 FFF7FEFF 		bl	UART_1_PutString
 238              	.LVL25:
 127:main.c        ****     Pin_IN1_Write(0);
 239              		.loc 1 127 0
 240 0008 0020     		movs	r0, #0
 241 000a FFF7FEFF 		bl	Pin_IN1_Write
 242              	.LVL26:
 128:main.c        ****     Pin_IN2_Write(1);
 243              		.loc 1 128 0
 244 000e 0120     		movs	r0, #1
 245 0010 FFF7FEFF 		bl	Pin_IN2_Write
 246              	.LVL27:
 129:main.c        ****     UART_1_PutChar(Pin_IN2_Read());
 247              		.loc 1 129 0
 248 0014 FFF7FEFF 		bl	Pin_IN2_Read
 249              	.LVL28:
 250 0018 FFF7FEFF 		bl	UART_1_PutChar
 251              	.LVL29:
 252 001c 08BD     		pop	{r3, pc}
 253              	.L21:
 254 001e 00BF     		.align	2
 255              	.L20:
 256 0020 D8000000 		.word	.LC9
 257              		.cfi_endproc
 258              	.LFE69:
 259              		.size	driveBackwards, .-driveBackwards
 260              		.section	.text.stop,"ax",%progbits
 261              		.align	2
 262              		.global	stop
 263              		.thumb
 264              		.thumb_func
 265              		.type	stop, %function
 266              	stop:
 267              	.LFB70:
 130:main.c        **** }
 131:main.c        **** 
 132:main.c        **** void stop()
ARM GAS  C:\Users\esben\AppData\Local\Temp\cc73CMqV.s 			page 8


 133:main.c        **** {
 268              		.loc 1 133 0
 269              		.cfi_startproc
 270              		@ args = 0, pretend = 0, frame = 0
 271              		@ frame_needed = 0, uses_anonymous_args = 0
 272 0000 08B5     		push	{r3, lr}
 273              		.cfi_def_cfa_offset 8
 274              		.cfi_offset 3, -8
 275              		.cfi_offset 14, -4
 134:main.c        ****     UART_1_PutString("\rStop                      ");
 276              		.loc 1 134 0
 277 0002 0348     		ldr	r0, .L24
 278 0004 FFF7FEFF 		bl	UART_1_PutString
 279              	.LVL30:
 135:main.c        ****     PWM_1_Sleep();
 280              		.loc 1 135 0
 281 0008 FFF7FEFF 		bl	PWM_1_Sleep
 282              	.LVL31:
 283 000c 08BD     		pop	{r3, pc}
 284              	.L25:
 285 000e 00BF     		.align	2
 286              	.L24:
 287 0010 F4000000 		.word	.LC10
 288              		.cfi_endproc
 289              	.LFE70:
 290              		.size	stop, .-stop
 291              		.section	.text.handleByteReceived,"ax",%progbits
 292              		.align	2
 293              		.global	handleByteReceived
 294              		.thumb
 295              		.thumb_func
 296              		.type	handleByteReceived, %function
 297              	handleByteReceived:
 298              	.LFB65:
  61:main.c        ****     switch(byteReceived)
 299              		.loc 1 61 0
 300              		.cfi_startproc
 301              		@ args = 0, pretend = 0, frame = 0
 302              		@ frame_needed = 0, uses_anonymous_args = 0
 303              	.LVL32:
 304 0000 08B5     		push	{r3, lr}
 305              		.cfi_def_cfa_offset 8
 306              		.cfi_offset 3, -8
 307              		.cfi_offset 14, -4
  62:main.c        ****     {
 308              		.loc 1 62 0
 309 0002 3228     		cmp	r0, #50
 310 0004 13D0     		beq	.L28
 311 0006 04D8     		bhi	.L29
 312 0008 3028     		cmp	r0, #48
 313 000a 13D0     		beq	.L30
 314 000c 3128     		cmp	r0, #49
 315 000e 0BD0     		beq	.L31
 316 0010 08BD     		pop	{r3, pc}
 317              	.L29:
 318 0012 7128     		cmp	r0, #113
 319 0014 02D0     		beq	.L32
ARM GAS  C:\Users\esben\AppData\Local\Temp\cc73CMqV.s 			page 9


 320 0016 7728     		cmp	r0, #119
 321 0018 03D0     		beq	.L33
 322 001a 08BD     		pop	{r3, pc}
 323              	.L32:
  66:main.c        ****         }
 324              		.loc 1 66 0
 325 001c FFF7FEFF 		bl	decreaseSpeed
 326              	.LVL33:
  68:main.c        ****         case 'w' :
 327              		.loc 1 68 0
 328 0020 08BD     		pop	{r3, pc}
 329              	.LVL34:
 330              	.L33:
  71:main.c        ****         }
 331              		.loc 1 71 0
 332 0022 FFF7FEFF 		bl	increaseSpeed
 333              	.LVL35:
  73:main.c        ****         case '1' :
 334              		.loc 1 73 0
 335 0026 08BD     		pop	{r3, pc}
 336              	.LVL36:
 337              	.L31:
  76:main.c        ****         }
 338              		.loc 1 76 0
 339 0028 FFF7FEFF 		bl	driveForwards
 340              	.LVL37:
  78:main.c        ****         case '2' :
 341              		.loc 1 78 0
 342 002c 08BD     		pop	{r3, pc}
 343              	.LVL38:
 344              	.L28:
  81:main.c        ****         }
 345              		.loc 1 81 0
 346 002e FFF7FEFF 		bl	driveBackwards
 347              	.LVL39:
  83:main.c        ****         case '0' :
 348              		.loc 1 83 0
 349 0032 08BD     		pop	{r3, pc}
 350              	.LVL40:
 351              	.L30:
  86:main.c        ****             
 352              		.loc 1 86 0
 353 0034 FFF7FEFF 		bl	stop
 354              	.LVL41:
 355 0038 08BD     		pop	{r3, pc}
 356              		.cfi_endproc
 357              	.LFE65:
 358              		.size	handleByteReceived, .-handleByteReceived
 359 003a 00BF     		.section	.text.ISR_UART_rx_handler,"ax",%progbits
 360              		.align	2
 361              		.global	ISR_UART_rx_handler
 362              		.thumb
 363              		.thumb_func
 364              		.type	ISR_UART_rx_handler, %function
 365              	ISR_UART_rx_handler:
 366              	.LFB64:
  47:main.c        ****     uint8_t bytesToRead = UART_1_GetRxBufferSize();
ARM GAS  C:\Users\esben\AppData\Local\Temp\cc73CMqV.s 			page 10


 367              		.loc 1 47 0
 368              		.cfi_startproc
 369              		@ args = 0, pretend = 0, frame = 0
 370              		@ frame_needed = 0, uses_anonymous_args = 0
 371 0000 38B5     		push	{r3, r4, r5, lr}
 372              		.cfi_def_cfa_offset 16
 373              		.cfi_offset 3, -16
 374              		.cfi_offset 4, -12
 375              		.cfi_offset 5, -8
 376              		.cfi_offset 14, -4
  48:main.c        ****     while (bytesToRead > 0)
 377              		.loc 1 48 0
 378 0002 FFF7FEFF 		bl	UART_1_GetRxBufferSize
 379              	.LVL42:
 380 0006 0446     		mov	r4, r0
 381              	.LVL43:
  49:main.c        ****     {
 382              		.loc 1 49 0
 383 0008 09E0     		b	.L36
 384              	.L37:
 385              	.LBB2:
  51:main.c        ****         UART_1_WriteTxData(byteReceived); // echo back
 386              		.loc 1 51 0
 387 000a FFF7FEFF 		bl	UART_1_ReadRxData
 388              	.LVL44:
 389 000e 0546     		mov	r5, r0
 390              	.LVL45:
  52:main.c        ****         
 391              		.loc 1 52 0
 392 0010 FFF7FEFF 		bl	UART_1_WriteTxData
 393              	.LVL46:
  54:main.c        ****         
 394              		.loc 1 54 0
 395 0014 2846     		mov	r0, r5
 396 0016 FFF7FEFF 		bl	handleByteReceived
 397              	.LVL47:
  56:main.c        ****     }
 398              		.loc 1 56 0
 399 001a 013C     		subs	r4, r4, #1
 400              	.LVL48:
 401 001c E4B2     		uxtb	r4, r4
 402              	.LVL49:
 403              	.L36:
 404              	.LBE2:
  49:main.c        ****     {
 405              		.loc 1 49 0
 406 001e 002C     		cmp	r4, #0
 407 0020 F3D1     		bne	.L37
  58:main.c        **** 
 408              		.loc 1 58 0
 409 0022 38BD     		pop	{r3, r4, r5, pc}
 410              		.cfi_endproc
 411              	.LFE64:
 412              		.size	ISR_UART_rx_handler, .-ISR_UART_rx_handler
 413              		.section	.rodata.str1.4,"aMS",%progbits,1
 414              		.align	2
 415              	.LC0:
ARM GAS  C:\Users\esben\AppData\Local\Temp\cc73CMqV.s 			page 11


 416 0000 44432D4D 		.ascii	"DC-Motor-PWM application started\015\012\000"
 416      6F746F72 
 416      2D50574D 
 416      20617070 
 416      6C696361 
 417 0023 00       		.space	1
 418              	.LC1:
 419 0024 303A2053 		.ascii	"0: Stop\015\012\000"
 419      746F700D 
 419      0A00
 420 002e 0000     		.space	2
 421              	.LC2:
 422 0030 313A2044 		.ascii	"1: Drive forwards\015\012\000"
 422      72697665 
 422      20666F72 
 422      77617264 
 422      730D0A00 
 423              	.LC3:
 424 0044 323A2044 		.ascii	"2: Drive backwards\015\012\000"
 424      72697665 
 424      20626163 
 424      6B776172 
 424      64730D0A 
 425 0059 000000   		.space	3
 426              	.LC4:
 427 005c 713A2044 		.ascii	"q: Decrease speed\015\012\000"
 427      65637265 
 427      61736520 
 427      73706565 
 427      640D0A00 
 428              	.LC5:
 429 0070 773A2049 		.ascii	"w: Increase speed\015\012\000"
 429      6E637265 
 429      61736520 
 429      73706565 
 429      640D0A00 
 430              	.LC6:
 431 0084 0D446563 		.ascii	"\015Decreasing speed          \000"
 431      72656173 
 431      696E6720 
 431      73706565 
 431      64202020 
 432              	.LC7:
 433 00a0 0D496E63 		.ascii	"\015Increasing speed          \000"
 433      72656173 
 433      696E6720 
 433      73706565 
 433      64202020 
 434              	.LC8:
 435 00bc 0D536574 		.ascii	"\015Set direction: forwards   \000"
 435      20646972 
 435      65637469 
 435      6F6E3A20 
 435      666F7277 
 436              	.LC9:
 437 00d8 0D536574 		.ascii	"\015Set direction: backwards  \000"
 437      20646972 
ARM GAS  C:\Users\esben\AppData\Local\Temp\cc73CMqV.s 			page 12


 437      65637469 
 437      6F6E3A20 
 437      6261636B 
 438              	.LC10:
 439 00f4 0D53746F 		.ascii	"\015Stop                      \000"
 439      70202020 
 439      20202020 
 439      20202020 
 439      20202020 
 440              		.text
 441              	.Letext0:
 442              		.file 2 "c:\\program files (x86)\\cypress\\psoc creator\\4.4\\psoc creator\\import\\gnu\\arm\\5.4.
 443              		.file 3 "c:\\program files (x86)\\cypress\\psoc creator\\4.4\\psoc creator\\import\\gnu\\arm\\5.4.
 444              		.file 4 "Generated_Source\\PSoC5/isr_uart_rx.h"
 445              		.file 5 "Generated_Source\\PSoC5/UART_1.h"
 446              		.file 6 "Generated_Source\\PSoC5/PWM_1.h"
 447              		.file 7 "Generated_Source\\PSoC5/Pin_IN2.h"
 448              		.file 8 "Generated_Source\\PSoC5/Pin_IN1.h"
 449              		.file 9 "Generated_Source\\PSoC5/core_cm3.h"