ARM GAS  C:\Users\esben\AppData\Local\Temp\cc1aKaQm.s 			page 1


   1              		.syntax unified
   2              		.cpu cortex-m3
   3              		.fpu softvfp
   4              		.eabi_attribute 20, 1
   5              		.eabi_attribute 21, 1
   6              		.eabi_attribute 23, 3
   7              		.eabi_attribute 24, 1
   8              		.eabi_attribute 25, 1
   9              		.eabi_attribute 26, 1
  10              		.eabi_attribute 30, 1
  11              		.eabi_attribute 34, 1
  12              		.eabi_attribute 18, 4
  13              		.thumb
  14              		.syntax unified
  15              		.file	"main.c"
  16              		.text
  17              	.Ltext0:
  18              		.cfi_sections	.debug_frame
  19              		.section	.text.ISR_Timer,"ax",%progbits
  20              		.align	2
  21              		.global	ISR_Timer
  22              		.thumb
  23              		.thumb_func
  24              		.type	ISR_Timer, %function
  25              	ISR_Timer:
  26              	.LFB76:
  27              		.file 1 "main.c"
   1:main.c        **** /* ========================================
   2:main.c        ****  *
   3:main.c        ****  * Copyright YOUR COMPANY, THE YEAR
   4:main.c        ****  * All Rights Reserved
   5:main.c        ****  * UNPUBLISHED, LICENSED SOFTWARE.
   6:main.c        ****  *
   7:main.c        ****  * CONFIDENTIAL AND PROPRIETARY INFORMATION
   8:main.c        ****  * WHICH IS THE PROPERTY OF your company.
   9:main.c        ****  *
  10:main.c        ****  * ========================================
  11:main.c        **** */
  12:main.c        **** #include "project.h"
  13:main.c        **** #include <stdint.h>
  14:main.c        **** #include <stdbool.h>
  15:main.c        **** #include <stdio.h>
  16:main.c        **** 
  17:main.c        **** CY_ISR_PROTO(ISR_UART_rx_handler);
  18:main.c        **** CY_ISR_PROTO(ISR_Timer);
  19:main.c        **** void handleByteReceived(uint8_t byteReceived);
  20:main.c        **** void decreaseSpeed(void);
  21:main.c        **** void increaseSpeed(void);
  22:main.c        **** void driveForwards(void);
  23:main.c        **** void driveBackwards(void);
  24:main.c        **** void switchDriveState(void);
  25:main.c        **** void oneRotationF(void);
  26:main.c        **** void oneRotationB(void);
  27:main.c        **** void stop(void);
  28:main.c        **** void drive(void);
  29:main.c        **** 
  30:main.c        **** typedef enum
ARM GAS  C:\Users\esben\AppData\Local\Temp\cc1aKaQm.s 			page 2


  31:main.c        **** {
  32:main.c        ****     WAVE_DRIVE,
  33:main.c        ****     HALF_STEP_DRIVE,
  34:main.c        **** }DRIVE_STATE;
  35:main.c        **** 
  36:main.c        **** typedef enum
  37:main.c        **** {
  38:main.c        ****     A1, 
  39:main.c        ****     A1A2, 
  40:main.c        ****     A2, 
  41:main.c        ****     A2B1, 
  42:main.c        ****     B1, 
  43:main.c        ****     B1B2, 
  44:main.c        ****     B2,
  45:main.c        ****     B2A1,
  46:main.c        **** }STEP_STATE;
  47:main.c        **** 
  48:main.c        **** typedef enum
  49:main.c        **** {
  50:main.c        ****     FORWARDS,
  51:main.c        ****     BACKWARDS,
  52:main.c        **** }DIRECTION_STATE;
  53:main.c        **** 
  54:main.c        **** static DRIVE_STATE driveState = WAVE_DRIVE;
  55:main.c        **** static STEP_STATE stepState = A1;
  56:main.c        **** static DIRECTION_STATE directionState = FORWARDS;
  57:main.c        **** static bool stepBool = true;
  58:main.c        **** 
  59:main.c        **** static uint8_t counter = 0;
  60:main.c        **** 
  61:main.c        **** int main(void)
  62:main.c        **** {
  63:main.c        ****     CyGlobalIntEnable; /* Enable global interrupts. */
  64:main.c        **** 
  65:main.c        ****     /* Place your initialization/startup code here (e.g. MyInst_Start()) */
  66:main.c        ****     //Pin_A1_Write(1); // set initial position
  67:main.c        ****     
  68:main.c        ****     isr_uart_rx_StartEx(ISR_UART_rx_handler);
  69:main.c        ****     isr_timer_StartEx(ISR_Timer);
  70:main.c        ****     Timer_1_Start();
  71:main.c        ****     UART_1_Start();
  72:main.c        ****     
  73:main.c        ****     UART_1_PutString("DC-Motor-PWM application started\r\n");
  74:main.c        ****     UART_1_PutString("0: Stop\r\n");
  75:main.c        ****     UART_1_PutString("1: Drive forwards\r\n");
  76:main.c        ****     UART_1_PutString("2: Drive backwards\r\n");
  77:main.c        ****     UART_1_PutString("q: Decrease speed\r\n");
  78:main.c        ****     UART_1_PutString("w: Increase speed\r\n");
  79:main.c        ****     UART_1_PutString("a: Select drive state\r\n");
  80:main.c        ****     UART_1_PutString("e: One Rotation\r\n");
  81:main.c        ****     
  82:main.c        ****     driveState = WAVE_DRIVE;
  83:main.c        ****     stepState = A1;
  84:main.c        ****     directionState = FORWARDS;
  85:main.c        ****     
  86:main.c        ****     stepBool = true;
  87:main.c        ****     
ARM GAS  C:\Users\esben\AppData\Local\Temp\cc1aKaQm.s 			page 3


  88:main.c        ****     for(;;)
  89:main.c        ****     {
  90:main.c        ****         /* Place your application code here. */
  91:main.c        ****         drive();
  92:main.c        ****         //CyDelay(500);
  93:main.c        ****         //snprintf(debugBuffer, sizeof(debugBuffer), "\rDriveState %d  Step: %d Direction %d", 
  94:main.c        ****         //    driveState, stepState, directionState);
  95:main.c        ****         //UART_1_PutString(debugBuffer);
  96:main.c        ****     }
  97:main.c        **** }
  98:main.c        **** 
  99:main.c        **** CY_ISR(ISR_UART_rx_handler)
 100:main.c        **** {
 101:main.c        ****     uint8_t bytesToRead = UART_1_GetRxBufferSize();
 102:main.c        ****     while (bytesToRead > 0)
 103:main.c        ****     {
 104:main.c        ****         uint8_t byteReceived = UART_1_ReadRxData();
 105:main.c        ****         // UART_1_WriteTxData(byteReceived); // echo back
 106:main.c        ****         
 107:main.c        ****         handleByteReceived(byteReceived);
 108:main.c        ****         
 109:main.c        ****         bytesToRead--;
 110:main.c        ****     }
 111:main.c        **** }
 112:main.c        **** 
 113:main.c        **** void handleByteReceived(uint8_t byteReceived)
 114:main.c        **** {
 115:main.c        ****     switch(byteReceived)
 116:main.c        ****     {
 117:main.c        ****         case 'q' :
 118:main.c        ****         {
 119:main.c        ****             decreaseSpeed();
 120:main.c        ****         }
 121:main.c        ****         break;
 122:main.c        ****         case 'w' :
 123:main.c        ****         {
 124:main.c        ****             increaseSpeed();
 125:main.c        ****         }
 126:main.c        ****         break;
 127:main.c        ****         case '1' :
 128:main.c        ****         {
 129:main.c        ****             driveForwards();
 130:main.c        ****         }
 131:main.c        ****         break;
 132:main.c        ****         case '2' :
 133:main.c        ****         {
 134:main.c        ****             driveBackwards();
 135:main.c        ****         }
 136:main.c        ****         break;
 137:main.c        ****         case '0' :
 138:main.c        ****         {
 139:main.c        ****             stop();
 140:main.c        ****             
 141:main.c        ****         }
 142:main.c        ****         break;
 143:main.c        ****         case 'a':
 144:main.c        ****         {
ARM GAS  C:\Users\esben\AppData\Local\Temp\cc1aKaQm.s 			page 4


 145:main.c        ****             switchDriveState();
 146:main.c        ****         }
 147:main.c        ****         break;
 148:main.c        ****         case 'e':
 149:main.c        ****         {
 150:main.c        ****             oneRotationF();
 151:main.c        ****         }
 152:main.c        ****         break;
 153:main.c        ****         case 'r':
 154:main.c        ****         {
 155:main.c        ****             oneRotationB();
 156:main.c        ****         }
 157:main.c        ****         break;
 158:main.c        ****         default :
 159:main.c        ****         {
 160:main.c        ****             // nothing
 161:main.c        ****         }
 162:main.c        ****         break;
 163:main.c        ****     }
 164:main.c        **** }
 165:main.c        **** 
 166:main.c        **** void decreaseSpeed()
 167:main.c        **** {
 168:main.c        ****     UART_1_PutString("Decreasing speed\n\r");
 169:main.c        ****     uint16_t period = Timer_1_ReadPeriod() * 1.5f;
 170:main.c        ****     period = period >= 255 ? 255 : period; 
 171:main.c        ****     
 172:main.c        ****     // For debugging
 173:main.c        ****     char buffer[256];
 174:main.c        ****     snprintf(buffer, sizeof(buffer), "Bytes read: %d\r\n", period);
 175:main.c        ****     UART_1_PutString(buffer);
 176:main.c        ****     
 177:main.c        ****     Timer_1_WritePeriod(period);
 178:main.c        ****     
 179:main.c        **** }
 180:main.c        **** 
 181:main.c        **** void increaseSpeed()
 182:main.c        **** {
 183:main.c        ****     UART_1_PutString("Increasing speed\n\r");
 184:main.c        ****     uint16_t period = Timer_1_ReadPeriod() * 0.75f;
 185:main.c        ****     period = period <= 2 ? 2 : period; 
 186:main.c        ****     
 187:main.c        ****     char buffer[256];
 188:main.c        ****     snprintf(buffer, sizeof(buffer), "Bytes read: %d\r\n", period);
 189:main.c        ****     UART_1_PutString(buffer);
 190:main.c        ****     
 191:main.c        ****     Timer_1_WritePeriod(period);
 192:main.c        ****     
 193:main.c        **** }
 194:main.c        **** 
 195:main.c        **** void driveForwards()
 196:main.c        **** {
 197:main.c        ****     UART_1_PutString("Set direction: forwards\n\r");
 198:main.c        ****     directionState = FORWARDS;
 199:main.c        ****     Timer_1_Start();
 200:main.c        **** }
 201:main.c        **** 
ARM GAS  C:\Users\esben\AppData\Local\Temp\cc1aKaQm.s 			page 5


 202:main.c        **** void driveBackwards()
 203:main.c        **** {
 204:main.c        ****     UART_1_PutString("Set direction: backwards\n\r");
 205:main.c        ****     directionState = BACKWARDS;
 206:main.c        ****     Timer_1_Start();
 207:main.c        **** }
 208:main.c        **** 
 209:main.c        **** void oneRotationF()
 210:main.c        **** {
 211:main.c        ****     Timer_1_Sleep();
 212:main.c        ****     directionState = FORWARDS;
 213:main.c        ****     counter = driveState == WAVE_DRIVE ? 48 : 96;
 214:main.c        ****     Timer_1_Start();
 215:main.c        **** }
 216:main.c        **** 
 217:main.c        **** void oneRotationB()
 218:main.c        **** {
 219:main.c        ****     Timer_1_Sleep();
 220:main.c        ****     directionState = BACKWARDS;
 221:main.c        ****     counter = driveState == WAVE_DRIVE ? 48 : 96;
 222:main.c        ****     Timer_1_Start();
 223:main.c        **** }
 224:main.c        **** 
 225:main.c        **** void stop()
 226:main.c        **** {
 227:main.c        ****     UART_1_PutString("Stop\n\r");
 228:main.c        ****     Timer_1_Sleep();
 229:main.c        ****     stepBool = false;
 230:main.c        **** }
 231:main.c        **** 
 232:main.c        **** void switchDriveState()
 233:main.c        **** {
 234:main.c        ****     if (driveState == WAVE_DRIVE)
 235:main.c        ****     {
 236:main.c        ****         UART_1_PutString("Half Step Drive\n\r");
 237:main.c        ****         driveState = HALF_STEP_DRIVE;
 238:main.c        ****     }
 239:main.c        ****     else
 240:main.c        ****     {
 241:main.c        ****         UART_1_PutString("\rWave Drive\n\r");
 242:main.c        ****         driveState = WAVE_DRIVE;
 243:main.c        ****     }
 244:main.c        **** }
 245:main.c        **** 
 246:main.c        **** void drive()
 247:main.c        **** {
 248:main.c        ****     if (stepBool)
 249:main.c        ****     {
 250:main.c        ****     if (driveState == WAVE_DRIVE)
 251:main.c        ****     {
 252:main.c        ****         if (directionState == FORWARDS)
 253:main.c        ****         {
 254:main.c        ****             switch (stepState)
 255:main.c        ****             {
 256:main.c        ****                 case A1:
 257:main.c        ****                     Pin_A1_Write(0);
 258:main.c        ****                     Pin_A2_Write(1);
ARM GAS  C:\Users\esben\AppData\Local\Temp\cc1aKaQm.s 			page 6


 259:main.c        ****                     stepState = A2;
 260:main.c        ****                     break;
 261:main.c        ****                 case A2:
 262:main.c        ****                     Pin_A2_Write(0);
 263:main.c        ****                     Pin_B1_Write(1);
 264:main.c        ****                     stepState = B1;
 265:main.c        ****                     break;
 266:main.c        ****                 case B1:
 267:main.c        ****                     Pin_B1_Write(0);
 268:main.c        ****                     Pin_B2_Write(1);
 269:main.c        ****                     stepState = B2;
 270:main.c        ****                     break;
 271:main.c        ****                 case B2:
 272:main.c        ****                     Pin_B2_Write(0);
 273:main.c        ****                     Pin_A1_Write(1);
 274:main.c        ****                     stepState = A1;
 275:main.c        ****                     break;
 276:main.c        ****                 default:
 277:main.c        ****                     // failsafe hvis vi kommer fra half step drive
 278:main.c        ****                     Pin_B1_Write(0);
 279:main.c        ****                     Pin_B2_Write(0);
 280:main.c        ****                     Pin_A2_Write(0);
 281:main.c        ****                     Pin_A1_Write(1);
 282:main.c        ****                     stepState = A1;
 283:main.c        ****                     break;
 284:main.c        ****             }
 285:main.c        ****         }
 286:main.c        ****         else if (directionState == BACKWARDS)
 287:main.c        ****         {
 288:main.c        ****             switch (stepState)
 289:main.c        ****             {
 290:main.c        ****                 case A1:
 291:main.c        ****                     Pin_A1_Write(0);
 292:main.c        ****                     Pin_B2_Write(1);
 293:main.c        ****                     stepState = B2;
 294:main.c        ****                     break;
 295:main.c        ****                 case A2:
 296:main.c        ****                     Pin_A2_Write(0);
 297:main.c        ****                     Pin_A1_Write(1);
 298:main.c        ****                     stepState = A1;
 299:main.c        ****                     break;
 300:main.c        ****                 case B1:
 301:main.c        ****                     Pin_B1_Write(0);
 302:main.c        ****                     Pin_A2_Write(1);
 303:main.c        ****                     stepState = A2;
 304:main.c        ****                     break;
 305:main.c        ****                 case B2:
 306:main.c        ****                     Pin_B2_Write(0);
 307:main.c        ****                     Pin_B1_Write(1);
 308:main.c        ****                     stepState = B1;
 309:main.c        ****                     break;
 310:main.c        ****                 default:
 311:main.c        ****                     // failsafe hvis vi kommer fra half step drive
 312:main.c        ****                     Pin_B1_Write(0);
 313:main.c        ****                     Pin_B2_Write(0);
 314:main.c        ****                     Pin_A2_Write(0);
 315:main.c        ****                     Pin_A1_Write(1);
ARM GAS  C:\Users\esben\AppData\Local\Temp\cc1aKaQm.s 			page 7


 316:main.c        ****                     stepState = A1;
 317:main.c        ****                     break;
 318:main.c        ****             }
 319:main.c        ****         }
 320:main.c        ****     }
 321:main.c        ****     
 322:main.c        ****     else if (driveState == HALF_STEP_DRIVE)
 323:main.c        ****     {
 324:main.c        ****         if (directionState == FORWARDS)
 325:main.c        ****         {
 326:main.c        ****             switch (stepState)
 327:main.c        ****             {
 328:main.c        ****                 case A1:
 329:main.c        ****                     Pin_A2_Write(1);
 330:main.c        ****                     stepState = A1A2;
 331:main.c        ****                     break;
 332:main.c        ****                 case A1A2:
 333:main.c        ****                     Pin_A1_Write(0);
 334:main.c        ****                     stepState = A2;
 335:main.c        ****                     break;
 336:main.c        ****                 case A2:
 337:main.c        ****                     Pin_B1_Write(1);
 338:main.c        ****                     stepState = A2B1;
 339:main.c        ****                     break;
 340:main.c        ****                 case A2B1:
 341:main.c        ****                     Pin_A2_Write(0);
 342:main.c        ****                     stepState = B1;
 343:main.c        ****                     break;
 344:main.c        ****                 case B1:
 345:main.c        ****                     Pin_B2_Write(1);
 346:main.c        ****                     stepState = B1B2;
 347:main.c        ****                     break;
 348:main.c        ****                 case B1B2:
 349:main.c        ****                     Pin_B1_Write(0);
 350:main.c        ****                     stepState = B2;
 351:main.c        ****                     break;
 352:main.c        ****                 case B2:
 353:main.c        ****                     Pin_A1_Write(1);
 354:main.c        ****                     stepState = B2A1;
 355:main.c        ****                     break;
 356:main.c        ****                 case B2A1:
 357:main.c        ****                     Pin_B2_Write(0);
 358:main.c        ****                     stepState = A1;
 359:main.c        ****                     break;
 360:main.c        ****             }    
 361:main.c        ****         }
 362:main.c        ****         else if (directionState == BACKWARDS)
 363:main.c        ****         {
 364:main.c        ****             switch (stepState)
 365:main.c        ****             {
 366:main.c        ****                 case A1:
 367:main.c        ****                     Pin_B2_Write(1);
 368:main.c        ****                     stepState = B2A1;
 369:main.c        ****                     break;
 370:main.c        ****                 case A1A2:
 371:main.c        ****                     Pin_A2_Write(0);
 372:main.c        ****                     stepState = A1;
ARM GAS  C:\Users\esben\AppData\Local\Temp\cc1aKaQm.s 			page 8


 373:main.c        ****                     break;
 374:main.c        ****                 case A2:
 375:main.c        ****                     Pin_A1_Write(1);
 376:main.c        ****                     stepState = A1A2;
 377:main.c        ****                     break;
 378:main.c        ****                 case A2B1:
 379:main.c        ****                     Pin_B1_Write(0);
 380:main.c        ****                     stepState = A2;
 381:main.c        ****                     break;
 382:main.c        ****                 case B1:
 383:main.c        ****                     Pin_A2_Write(1);
 384:main.c        ****                     stepState = A2B1;
 385:main.c        ****                     break;
 386:main.c        ****                 case B1B2:
 387:main.c        ****                     Pin_B2_Write(0);
 388:main.c        ****                     stepState = B1;
 389:main.c        ****                     break;
 390:main.c        ****                 case B2:
 391:main.c        ****                     Pin_B1_Write(1);
 392:main.c        ****                     stepState = B1B2;
 393:main.c        ****                     break;
 394:main.c        ****                 case B2A1:
 395:main.c        ****                     Pin_A1_Write(0);
 396:main.c        ****                     stepState = B2;
 397:main.c        ****                     break;
 398:main.c        ****             }
 399:main.c        ****         }
 400:main.c        ****     }
 401:main.c        ****     if (counter)
 402:main.c        ****     {
 403:main.c        ****         counter--;
 404:main.c        ****         if (!counter)
 405:main.c        ****         {
 406:main.c        ****             Timer_1_Sleep();
 407:main.c        ****         }
 408:main.c        ****     }
 409:main.c        ****     stepBool = false;    
 410:main.c        ****     }
 411:main.c        **** }
 412:main.c        **** 
 413:main.c        **** CY_ISR(ISR_Timer)
 414:main.c        **** {
  28              		.loc 1 414 0
  29              		.cfi_startproc
  30              		@ args = 0, pretend = 0, frame = 0
  31              		@ frame_needed = 0, uses_anonymous_args = 0
  32              		@ link register save eliminated.
 415:main.c        ****     stepBool = true;
  33              		.loc 1 415 0
  34 0000 0122     		movs	r2, #1
  35 0002 014B     		ldr	r3, .L2
  36 0004 1A70     		strb	r2, [r3]
  37 0006 7047     		bx	lr
  38              	.L3:
  39              		.align	2
  40              	.L2:
  41 0008 00000000 		.word	.LANCHOR0
ARM GAS  C:\Users\esben\AppData\Local\Temp\cc1aKaQm.s 			page 9


  42              		.cfi_endproc
  43              	.LFE76:
  44              		.size	ISR_Timer, .-ISR_Timer
  45              		.global	__aeabi_i2f
  46              		.global	__aeabi_fmul
  47              		.global	__aeabi_f2uiz
  48              		.section	.text.decreaseSpeed,"ax",%progbits
  49              		.align	2
  50              		.global	decreaseSpeed
  51              		.thumb
  52              		.thumb_func
  53              		.type	decreaseSpeed, %function
  54              	decreaseSpeed:
  55              	.LFB67:
 167:main.c        ****     UART_1_PutString("Decreasing speed\n\r");
  56              		.loc 1 167 0
  57              		.cfi_startproc
  58              		@ args = 0, pretend = 0, frame = 256
  59              		@ frame_needed = 0, uses_anonymous_args = 0
  60 0000 10B5     		push	{r4, lr}
  61              		.cfi_def_cfa_offset 8
  62              		.cfi_offset 4, -8
  63              		.cfi_offset 14, -4
  64 0002 C0B0     		sub	sp, sp, #256
  65              		.cfi_def_cfa_offset 264
 168:main.c        ****     uint16_t period = Timer_1_ReadPeriod() * 1.5f;
  66              		.loc 1 168 0
  67 0004 1048     		ldr	r0, .L6
  68 0006 FFF7FEFF 		bl	UART_1_PutString
  69              	.LVL0:
 169:main.c        ****     period = period >= 255 ? 255 : period; 
  70              		.loc 1 169 0
  71 000a FFF7FEFF 		bl	Timer_1_ReadPeriod
  72              	.LVL1:
  73 000e FFF7FEFF 		bl	__aeabi_i2f
  74              	.LVL2:
  75 0012 4FF07F51 		mov	r1, #1069547520
  76 0016 FFF7FEFF 		bl	__aeabi_fmul
  77              	.LVL3:
  78 001a FFF7FEFF 		bl	__aeabi_f2uiz
  79              	.LVL4:
  80 001e 80B2     		uxth	r0, r0
  81              	.LVL5:
 170:main.c        ****     
  82              		.loc 1 170 0
  83 0020 FF28     		cmp	r0, #255
  84 0022 28BF     		it	cs
  85 0024 FF20     		movcs	r0, #255
  86              	.LVL6:
  87 0026 0446     		mov	r4, r0
  88              	.LVL7:
 174:main.c        ****     UART_1_PutString(buffer);
  89              		.loc 1 174 0
  90 0028 0346     		mov	r3, r0
  91 002a 084A     		ldr	r2, .L6+4
  92 002c 4FF48071 		mov	r1, #256
  93 0030 6846     		mov	r0, sp
ARM GAS  C:\Users\esben\AppData\Local\Temp\cc1aKaQm.s 			page 10


  94              	.LVL8:
  95 0032 FFF7FEFF 		bl	snprintf
  96              	.LVL9:
 175:main.c        ****     
  97              		.loc 1 175 0
  98 0036 6846     		mov	r0, sp
  99 0038 FFF7FEFF 		bl	UART_1_PutString
 100              	.LVL10:
 177:main.c        ****     
 101              		.loc 1 177 0
 102 003c E0B2     		uxtb	r0, r4
 103 003e FFF7FEFF 		bl	Timer_1_WritePeriod
 104              	.LVL11:
 179:main.c        **** 
 105              		.loc 1 179 0
 106 0042 40B0     		add	sp, sp, #256
 107              		.cfi_def_cfa_offset 8
 108              		@ sp needed
 109 0044 10BD     		pop	{r4, pc}
 110              	.LVL12:
 111              	.L7:
 112 0046 00BF     		.align	2
 113              	.L6:
 114 0048 00000000 		.word	.LC0
 115 004c 14000000 		.word	.LC1
 116              		.cfi_endproc
 117              	.LFE67:
 118              		.size	decreaseSpeed, .-decreaseSpeed
 119              		.section	.text.increaseSpeed,"ax",%progbits
 120              		.align	2
 121              		.global	increaseSpeed
 122              		.thumb
 123              		.thumb_func
 124              		.type	increaseSpeed, %function
 125              	increaseSpeed:
 126              	.LFB68:
 182:main.c        ****     UART_1_PutString("Increasing speed\n\r");
 127              		.loc 1 182 0
 128              		.cfi_startproc
 129              		@ args = 0, pretend = 0, frame = 256
 130              		@ frame_needed = 0, uses_anonymous_args = 0
 131 0000 10B5     		push	{r4, lr}
 132              		.cfi_def_cfa_offset 8
 133              		.cfi_offset 4, -8
 134              		.cfi_offset 14, -4
 135 0002 C0B0     		sub	sp, sp, #256
 136              		.cfi_def_cfa_offset 264
 183:main.c        ****     uint16_t period = Timer_1_ReadPeriod() * 0.75f;
 137              		.loc 1 183 0
 138 0004 1048     		ldr	r0, .L10
 139 0006 FFF7FEFF 		bl	UART_1_PutString
 140              	.LVL13:
 184:main.c        ****     period = period <= 2 ? 2 : period; 
 141              		.loc 1 184 0
 142 000a FFF7FEFF 		bl	Timer_1_ReadPeriod
 143              	.LVL14:
 144 000e FFF7FEFF 		bl	__aeabi_i2f
ARM GAS  C:\Users\esben\AppData\Local\Temp\cc1aKaQm.s 			page 11


 145              	.LVL15:
 146 0012 4FF07D51 		mov	r1, #1061158912
 147 0016 FFF7FEFF 		bl	__aeabi_fmul
 148              	.LVL16:
 149 001a FFF7FEFF 		bl	__aeabi_f2uiz
 150              	.LVL17:
 151 001e 80B2     		uxth	r0, r0
 152              	.LVL18:
 185:main.c        ****     
 153              		.loc 1 185 0
 154 0020 0228     		cmp	r0, #2
 155 0022 38BF     		it	cc
 156 0024 0220     		movcc	r0, #2
 157              	.LVL19:
 158 0026 0446     		mov	r4, r0
 159              	.LVL20:
 188:main.c        ****     UART_1_PutString(buffer);
 160              		.loc 1 188 0
 161 0028 0346     		mov	r3, r0
 162 002a 084A     		ldr	r2, .L10+4
 163 002c 4FF48071 		mov	r1, #256
 164 0030 6846     		mov	r0, sp
 165              	.LVL21:
 166 0032 FFF7FEFF 		bl	snprintf
 167              	.LVL22:
 189:main.c        ****     
 168              		.loc 1 189 0
 169 0036 6846     		mov	r0, sp
 170 0038 FFF7FEFF 		bl	UART_1_PutString
 171              	.LVL23:
 191:main.c        ****     
 172              		.loc 1 191 0
 173 003c E0B2     		uxtb	r0, r4
 174 003e FFF7FEFF 		bl	Timer_1_WritePeriod
 175              	.LVL24:
 193:main.c        **** 
 176              		.loc 1 193 0
 177 0042 40B0     		add	sp, sp, #256
 178              		.cfi_def_cfa_offset 8
 179              		@ sp needed
 180 0044 10BD     		pop	{r4, pc}
 181              	.LVL25:
 182              	.L11:
 183 0046 00BF     		.align	2
 184              	.L10:
 185 0048 28000000 		.word	.LC2
 186 004c 14000000 		.word	.LC1
 187              		.cfi_endproc
 188              	.LFE68:
 189              		.size	increaseSpeed, .-increaseSpeed
 190              		.section	.text.driveForwards,"ax",%progbits
 191              		.align	2
 192              		.global	driveForwards
 193              		.thumb
 194              		.thumb_func
 195              		.type	driveForwards, %function
 196              	driveForwards:
ARM GAS  C:\Users\esben\AppData\Local\Temp\cc1aKaQm.s 			page 12


 197              	.LFB69:
 196:main.c        ****     UART_1_PutString("Set direction: forwards\n\r");
 198              		.loc 1 196 0
 199              		.cfi_startproc
 200              		@ args = 0, pretend = 0, frame = 0
 201              		@ frame_needed = 0, uses_anonymous_args = 0
 202 0000 08B5     		push	{r3, lr}
 203              		.cfi_def_cfa_offset 8
 204              		.cfi_offset 3, -8
 205              		.cfi_offset 14, -4
 197:main.c        ****     directionState = FORWARDS;
 206              		.loc 1 197 0
 207 0002 0448     		ldr	r0, .L14
 208 0004 FFF7FEFF 		bl	UART_1_PutString
 209              	.LVL26:
 198:main.c        ****     Timer_1_Start();
 210              		.loc 1 198 0
 211 0008 0022     		movs	r2, #0
 212 000a 034B     		ldr	r3, .L14+4
 213 000c 1A70     		strb	r2, [r3]
 199:main.c        **** }
 214              		.loc 1 199 0
 215 000e FFF7FEFF 		bl	Timer_1_Start
 216              	.LVL27:
 217 0012 08BD     		pop	{r3, pc}
 218              	.L15:
 219              		.align	2
 220              	.L14:
 221 0014 3C000000 		.word	.LC3
 222 0018 00000000 		.word	.LANCHOR1
 223              		.cfi_endproc
 224              	.LFE69:
 225              		.size	driveForwards, .-driveForwards
 226              		.section	.text.driveBackwards,"ax",%progbits
 227              		.align	2
 228              		.global	driveBackwards
 229              		.thumb
 230              		.thumb_func
 231              		.type	driveBackwards, %function
 232              	driveBackwards:
 233              	.LFB70:
 203:main.c        ****     UART_1_PutString("Set direction: backwards\n\r");
 234              		.loc 1 203 0
 235              		.cfi_startproc
 236              		@ args = 0, pretend = 0, frame = 0
 237              		@ frame_needed = 0, uses_anonymous_args = 0
 238 0000 08B5     		push	{r3, lr}
 239              		.cfi_def_cfa_offset 8
 240              		.cfi_offset 3, -8
 241              		.cfi_offset 14, -4
 204:main.c        ****     directionState = BACKWARDS;
 242              		.loc 1 204 0
 243 0002 0448     		ldr	r0, .L18
 244 0004 FFF7FEFF 		bl	UART_1_PutString
 245              	.LVL28:
 205:main.c        ****     Timer_1_Start();
 246              		.loc 1 205 0
ARM GAS  C:\Users\esben\AppData\Local\Temp\cc1aKaQm.s 			page 13


 247 0008 0122     		movs	r2, #1
 248 000a 034B     		ldr	r3, .L18+4
 249 000c 1A70     		strb	r2, [r3]
 206:main.c        **** }
 250              		.loc 1 206 0
 251 000e FFF7FEFF 		bl	Timer_1_Start
 252              	.LVL29:
 253 0012 08BD     		pop	{r3, pc}
 254              	.L19:
 255              		.align	2
 256              	.L18:
 257 0014 58000000 		.word	.LC4
 258 0018 00000000 		.word	.LANCHOR1
 259              		.cfi_endproc
 260              	.LFE70:
 261              		.size	driveBackwards, .-driveBackwards
 262              		.section	.text.oneRotationF,"ax",%progbits
 263              		.align	2
 264              		.global	oneRotationF
 265              		.thumb
 266              		.thumb_func
 267              		.type	oneRotationF, %function
 268              	oneRotationF:
 269              	.LFB71:
 210:main.c        ****     Timer_1_Sleep();
 270              		.loc 1 210 0
 271              		.cfi_startproc
 272              		@ args = 0, pretend = 0, frame = 0
 273              		@ frame_needed = 0, uses_anonymous_args = 0
 274 0000 08B5     		push	{r3, lr}
 275              		.cfi_def_cfa_offset 8
 276              		.cfi_offset 3, -8
 277              		.cfi_offset 14, -4
 211:main.c        ****     directionState = FORWARDS;
 278              		.loc 1 211 0
 279 0002 FFF7FEFF 		bl	Timer_1_Sleep
 280              	.LVL30:
 212:main.c        ****     counter = driveState == WAVE_DRIVE ? 48 : 96;
 281              		.loc 1 212 0
 282 0006 064B     		ldr	r3, .L24
 283 0008 0022     		movs	r2, #0
 284 000a 1A70     		strb	r2, [r3]
 213:main.c        ****     Timer_1_Start();
 285              		.loc 1 213 0
 286 000c 5B78     		ldrb	r3, [r3, #1]	@ zero_extendqisi2
 287 000e 0BB9     		cbnz	r3, .L22
 288 0010 3022     		movs	r2, #48
 289 0012 00E0     		b	.L21
 290              	.L22:
 291 0014 6022     		movs	r2, #96
 292              	.L21:
 213:main.c        ****     Timer_1_Start();
 293              		.loc 1 213 0 is_stmt 0 discriminator 4
 294 0016 024B     		ldr	r3, .L24
 295 0018 9A70     		strb	r2, [r3, #2]
 214:main.c        **** }
 296              		.loc 1 214 0 is_stmt 1 discriminator 4
ARM GAS  C:\Users\esben\AppData\Local\Temp\cc1aKaQm.s 			page 14


 297 001a FFF7FEFF 		bl	Timer_1_Start
 298              	.LVL31:
 299 001e 08BD     		pop	{r3, pc}
 300              	.L25:
 301              		.align	2
 302              	.L24:
 303 0020 00000000 		.word	.LANCHOR1
 304              		.cfi_endproc
 305              	.LFE71:
 306              		.size	oneRotationF, .-oneRotationF
 307              		.section	.text.oneRotationB,"ax",%progbits
 308              		.align	2
 309              		.global	oneRotationB
 310              		.thumb
 311              		.thumb_func
 312              		.type	oneRotationB, %function
 313              	oneRotationB:
 314              	.LFB72:
 218:main.c        ****     Timer_1_Sleep();
 315              		.loc 1 218 0
 316              		.cfi_startproc
 317              		@ args = 0, pretend = 0, frame = 0
 318              		@ frame_needed = 0, uses_anonymous_args = 0
 319 0000 08B5     		push	{r3, lr}
 320              		.cfi_def_cfa_offset 8
 321              		.cfi_offset 3, -8
 322              		.cfi_offset 14, -4
 219:main.c        ****     directionState = BACKWARDS;
 323              		.loc 1 219 0
 324 0002 FFF7FEFF 		bl	Timer_1_Sleep
 325              	.LVL32:
 220:main.c        ****     counter = driveState == WAVE_DRIVE ? 48 : 96;
 326              		.loc 1 220 0
 327 0006 064B     		ldr	r3, .L30
 328 0008 0122     		movs	r2, #1
 329 000a 1A70     		strb	r2, [r3]
 221:main.c        ****     Timer_1_Start();
 330              		.loc 1 221 0
 331 000c 5B78     		ldrb	r3, [r3, #1]	@ zero_extendqisi2
 332 000e 0BB9     		cbnz	r3, .L28
 333 0010 3022     		movs	r2, #48
 334 0012 00E0     		b	.L27
 335              	.L28:
 336 0014 6022     		movs	r2, #96
 337              	.L27:
 221:main.c        ****     Timer_1_Start();
 338              		.loc 1 221 0 is_stmt 0 discriminator 4
 339 0016 024B     		ldr	r3, .L30
 340 0018 9A70     		strb	r2, [r3, #2]
 222:main.c        **** }
 341              		.loc 1 222 0 is_stmt 1 discriminator 4
 342 001a FFF7FEFF 		bl	Timer_1_Start
 343              	.LVL33:
 344 001e 08BD     		pop	{r3, pc}
 345              	.L31:
 346              		.align	2
 347              	.L30:
ARM GAS  C:\Users\esben\AppData\Local\Temp\cc1aKaQm.s 			page 15


 348 0020 00000000 		.word	.LANCHOR1
 349              		.cfi_endproc
 350              	.LFE72:
 351              		.size	oneRotationB, .-oneRotationB
 352              		.section	.text.stop,"ax",%progbits
 353              		.align	2
 354              		.global	stop
 355              		.thumb
 356              		.thumb_func
 357              		.type	stop, %function
 358              	stop:
 359              	.LFB73:
 226:main.c        ****     UART_1_PutString("Stop\n\r");
 360              		.loc 1 226 0
 361              		.cfi_startproc
 362              		@ args = 0, pretend = 0, frame = 0
 363              		@ frame_needed = 0, uses_anonymous_args = 0
 364 0000 08B5     		push	{r3, lr}
 365              		.cfi_def_cfa_offset 8
 366              		.cfi_offset 3, -8
 367              		.cfi_offset 14, -4
 227:main.c        ****     Timer_1_Sleep();
 368              		.loc 1 227 0
 369 0002 0448     		ldr	r0, .L34
 370 0004 FFF7FEFF 		bl	UART_1_PutString
 371              	.LVL34:
 228:main.c        ****     stepBool = false;
 372              		.loc 1 228 0
 373 0008 FFF7FEFF 		bl	Timer_1_Sleep
 374              	.LVL35:
 229:main.c        **** }
 375              		.loc 1 229 0
 376 000c 0022     		movs	r2, #0
 377 000e 024B     		ldr	r3, .L34+4
 378 0010 1A70     		strb	r2, [r3]
 379 0012 08BD     		pop	{r3, pc}
 380              	.L35:
 381              		.align	2
 382              	.L34:
 383 0014 74000000 		.word	.LC5
 384 0018 00000000 		.word	.LANCHOR0
 385              		.cfi_endproc
 386              	.LFE73:
 387              		.size	stop, .-stop
 388              		.section	.text.switchDriveState,"ax",%progbits
 389              		.align	2
 390              		.global	switchDriveState
 391              		.thumb
 392              		.thumb_func
 393              		.type	switchDriveState, %function
 394              	switchDriveState:
 395              	.LFB74:
 233:main.c        ****     if (driveState == WAVE_DRIVE)
 396              		.loc 1 233 0
 397              		.cfi_startproc
 398              		@ args = 0, pretend = 0, frame = 0
 399              		@ frame_needed = 0, uses_anonymous_args = 0
ARM GAS  C:\Users\esben\AppData\Local\Temp\cc1aKaQm.s 			page 16


 400 0000 08B5     		push	{r3, lr}
 401              		.cfi_def_cfa_offset 8
 402              		.cfi_offset 3, -8
 403              		.cfi_offset 14, -4
 234:main.c        ****     {
 404              		.loc 1 234 0
 405 0002 084B     		ldr	r3, .L40
 406 0004 5B78     		ldrb	r3, [r3, #1]	@ zero_extendqisi2
 407 0006 33B9     		cbnz	r3, .L37
 236:main.c        ****         driveState = HALF_STEP_DRIVE;
 408              		.loc 1 236 0
 409 0008 0748     		ldr	r0, .L40+4
 410 000a FFF7FEFF 		bl	UART_1_PutString
 411              	.LVL36:
 237:main.c        ****     }
 412              		.loc 1 237 0
 413 000e 0122     		movs	r2, #1
 414 0010 044B     		ldr	r3, .L40
 415 0012 5A70     		strb	r2, [r3, #1]
 416 0014 08BD     		pop	{r3, pc}
 417              	.L37:
 241:main.c        ****         driveState = WAVE_DRIVE;
 418              		.loc 1 241 0
 419 0016 0548     		ldr	r0, .L40+8
 420 0018 FFF7FEFF 		bl	UART_1_PutString
 421              	.LVL37:
 242:main.c        ****     }
 422              		.loc 1 242 0
 423 001c 0022     		movs	r2, #0
 424 001e 014B     		ldr	r3, .L40
 425 0020 5A70     		strb	r2, [r3, #1]
 426 0022 08BD     		pop	{r3, pc}
 427              	.L41:
 428              		.align	2
 429              	.L40:
 430 0024 00000000 		.word	.LANCHOR1
 431 0028 7C000000 		.word	.LC6
 432 002c 90000000 		.word	.LC7
 433              		.cfi_endproc
 434              	.LFE74:
 435              		.size	switchDriveState, .-switchDriveState
 436              		.section	.text.handleByteReceived,"ax",%progbits
 437              		.align	2
 438              		.global	handleByteReceived
 439              		.thumb
 440              		.thumb_func
 441              		.type	handleByteReceived, %function
 442              	handleByteReceived:
 443              	.LFB66:
 114:main.c        ****     switch(byteReceived)
 444              		.loc 1 114 0
 445              		.cfi_startproc
 446              		@ args = 0, pretend = 0, frame = 0
 447              		@ frame_needed = 0, uses_anonymous_args = 0
 448              	.LVL38:
 449 0000 08B5     		push	{r3, lr}
 450              		.cfi_def_cfa_offset 8
ARM GAS  C:\Users\esben\AppData\Local\Temp\cc1aKaQm.s 			page 17


 451              		.cfi_offset 3, -8
 452              		.cfi_offset 14, -4
 115:main.c        ****     {
 453              		.loc 1 115 0
 454 0002 3038     		subs	r0, r0, #48
 455              	.LVL39:
 456 0004 4728     		cmp	r0, #71
 457 0006 3CD8     		bhi	.L42
 458 0008 DFE800F0 		tbb	[pc, r0]
 459              	.L45:
 460 000c 30       		.byte	(.L44-.L45)/2
 461 000d 2A       		.byte	(.L46-.L45)/2
 462 000e 2D       		.byte	(.L47-.L45)/2
 463 000f 3B       		.byte	(.L42-.L45)/2
 464 0010 3B       		.byte	(.L42-.L45)/2
 465 0011 3B       		.byte	(.L42-.L45)/2
 466 0012 3B       		.byte	(.L42-.L45)/2
 467 0013 3B       		.byte	(.L42-.L45)/2
 468 0014 3B       		.byte	(.L42-.L45)/2
 469 0015 3B       		.byte	(.L42-.L45)/2
 470 0016 3B       		.byte	(.L42-.L45)/2
 471 0017 3B       		.byte	(.L42-.L45)/2
 472 0018 3B       		.byte	(.L42-.L45)/2
 473 0019 3B       		.byte	(.L42-.L45)/2
 474 001a 3B       		.byte	(.L42-.L45)/2
 475 001b 3B       		.byte	(.L42-.L45)/2
 476 001c 3B       		.byte	(.L42-.L45)/2
 477 001d 3B       		.byte	(.L42-.L45)/2
 478 001e 3B       		.byte	(.L42-.L45)/2
 479 001f 3B       		.byte	(.L42-.L45)/2
 480 0020 3B       		.byte	(.L42-.L45)/2
 481 0021 3B       		.byte	(.L42-.L45)/2
 482 0022 3B       		.byte	(.L42-.L45)/2
 483 0023 3B       		.byte	(.L42-.L45)/2
 484 0024 3B       		.byte	(.L42-.L45)/2
 485 0025 3B       		.byte	(.L42-.L45)/2
 486 0026 3B       		.byte	(.L42-.L45)/2
 487 0027 3B       		.byte	(.L42-.L45)/2
 488 0028 3B       		.byte	(.L42-.L45)/2
 489 0029 3B       		.byte	(.L42-.L45)/2
 490 002a 3B       		.byte	(.L42-.L45)/2
 491 002b 3B       		.byte	(.L42-.L45)/2
 492 002c 3B       		.byte	(.L42-.L45)/2
 493 002d 3B       		.byte	(.L42-.L45)/2
 494 002e 3B       		.byte	(.L42-.L45)/2
 495 002f 3B       		.byte	(.L42-.L45)/2
 496 0030 3B       		.byte	(.L42-.L45)/2
 497 0031 3B       		.byte	(.L42-.L45)/2
 498 0032 3B       		.byte	(.L42-.L45)/2
 499 0033 3B       		.byte	(.L42-.L45)/2
 500 0034 3B       		.byte	(.L42-.L45)/2
 501 0035 3B       		.byte	(.L42-.L45)/2
 502 0036 3B       		.byte	(.L42-.L45)/2
 503 0037 3B       		.byte	(.L42-.L45)/2
 504 0038 3B       		.byte	(.L42-.L45)/2
 505 0039 3B       		.byte	(.L42-.L45)/2
 506 003a 3B       		.byte	(.L42-.L45)/2
ARM GAS  C:\Users\esben\AppData\Local\Temp\cc1aKaQm.s 			page 18


 507 003b 3B       		.byte	(.L42-.L45)/2
 508 003c 3B       		.byte	(.L42-.L45)/2
 509 003d 33       		.byte	(.L48-.L45)/2
 510 003e 3B       		.byte	(.L42-.L45)/2
 511 003f 3B       		.byte	(.L42-.L45)/2
 512 0040 3B       		.byte	(.L42-.L45)/2
 513 0041 36       		.byte	(.L49-.L45)/2
 514 0042 3B       		.byte	(.L42-.L45)/2
 515 0043 3B       		.byte	(.L42-.L45)/2
 516 0044 3B       		.byte	(.L42-.L45)/2
 517 0045 3B       		.byte	(.L42-.L45)/2
 518 0046 3B       		.byte	(.L42-.L45)/2
 519 0047 3B       		.byte	(.L42-.L45)/2
 520 0048 3B       		.byte	(.L42-.L45)/2
 521 0049 3B       		.byte	(.L42-.L45)/2
 522 004a 3B       		.byte	(.L42-.L45)/2
 523 004b 3B       		.byte	(.L42-.L45)/2
 524 004c 3B       		.byte	(.L42-.L45)/2
 525 004d 24       		.byte	(.L50-.L45)/2
 526 004e 39       		.byte	(.L51-.L45)/2
 527 004f 3B       		.byte	(.L42-.L45)/2
 528 0050 3B       		.byte	(.L42-.L45)/2
 529 0051 3B       		.byte	(.L42-.L45)/2
 530 0052 3B       		.byte	(.L42-.L45)/2
 531 0053 27       		.byte	(.L52-.L45)/2
 532              		.p2align 1
 533              	.L50:
 119:main.c        ****         }
 534              		.loc 1 119 0
 535 0054 FFF7FEFF 		bl	decreaseSpeed
 536              	.LVL40:
 121:main.c        ****         case 'w' :
 537              		.loc 1 121 0
 538 0058 08BD     		pop	{r3, pc}
 539              	.L52:
 124:main.c        ****         }
 540              		.loc 1 124 0
 541 005a FFF7FEFF 		bl	increaseSpeed
 542              	.LVL41:
 126:main.c        ****         case '1' :
 543              		.loc 1 126 0
 544 005e 08BD     		pop	{r3, pc}
 545              	.L46:
 129:main.c        ****         }
 546              		.loc 1 129 0
 547 0060 FFF7FEFF 		bl	driveForwards
 548              	.LVL42:
 131:main.c        ****         case '2' :
 549              		.loc 1 131 0
 550 0064 08BD     		pop	{r3, pc}
 551              	.L47:
 134:main.c        ****         }
 552              		.loc 1 134 0
 553 0066 FFF7FEFF 		bl	driveBackwards
 554              	.LVL43:
 136:main.c        ****         case '0' :
 555              		.loc 1 136 0
ARM GAS  C:\Users\esben\AppData\Local\Temp\cc1aKaQm.s 			page 19


 556 006a 08BD     		pop	{r3, pc}
 557              	.L44:
 139:main.c        ****             
 558              		.loc 1 139 0
 559 006c FFF7FEFF 		bl	stop
 560              	.LVL44:
 142:main.c        ****         case 'a':
 561              		.loc 1 142 0
 562 0070 08BD     		pop	{r3, pc}
 563              	.L48:
 145:main.c        ****         }
 564              		.loc 1 145 0
 565 0072 FFF7FEFF 		bl	switchDriveState
 566              	.LVL45:
 147:main.c        ****         case 'e':
 567              		.loc 1 147 0
 568 0076 08BD     		pop	{r3, pc}
 569              	.L49:
 150:main.c        ****         }
 570              		.loc 1 150 0
 571 0078 FFF7FEFF 		bl	oneRotationF
 572              	.LVL46:
 152:main.c        ****         case 'r':
 573              		.loc 1 152 0
 574 007c 08BD     		pop	{r3, pc}
 575              	.L51:
 155:main.c        ****         }
 576              		.loc 1 155 0
 577 007e FFF7FEFF 		bl	oneRotationB
 578              	.LVL47:
 579              	.L42:
 580 0082 08BD     		pop	{r3, pc}
 581              		.cfi_endproc
 582              	.LFE66:
 583              		.size	handleByteReceived, .-handleByteReceived
 584              		.section	.text.ISR_UART_rx_handler,"ax",%progbits
 585              		.align	2
 586              		.global	ISR_UART_rx_handler
 587              		.thumb
 588              		.thumb_func
 589              		.type	ISR_UART_rx_handler, %function
 590              	ISR_UART_rx_handler:
 591              	.LFB65:
 100:main.c        ****     uint8_t bytesToRead = UART_1_GetRxBufferSize();
 592              		.loc 1 100 0
 593              		.cfi_startproc
 594              		@ args = 0, pretend = 0, frame = 0
 595              		@ frame_needed = 0, uses_anonymous_args = 0
 596 0000 10B5     		push	{r4, lr}
 597              		.cfi_def_cfa_offset 8
 598              		.cfi_offset 4, -8
 599              		.cfi_offset 14, -4
 101:main.c        ****     while (bytesToRead > 0)
 600              		.loc 1 101 0
 601 0002 FFF7FEFF 		bl	UART_1_GetRxBufferSize
 602              	.LVL48:
 603 0006 0446     		mov	r4, r0
ARM GAS  C:\Users\esben\AppData\Local\Temp\cc1aKaQm.s 			page 20


 604              	.LVL49:
 102:main.c        ****     {
 605              		.loc 1 102 0
 606 0008 05E0     		b	.L55
 607              	.L56:
 608              	.LBB2:
 104:main.c        ****         // UART_1_WriteTxData(byteReceived); // echo back
 609              		.loc 1 104 0
 610 000a FFF7FEFF 		bl	UART_1_ReadRxData
 611              	.LVL50:
 107:main.c        ****         
 612              		.loc 1 107 0
 613 000e FFF7FEFF 		bl	handleByteReceived
 614              	.LVL51:
 109:main.c        ****     }
 615              		.loc 1 109 0
 616 0012 013C     		subs	r4, r4, #1
 617              	.LVL52:
 618 0014 E4B2     		uxtb	r4, r4
 619              	.LVL53:
 620              	.L55:
 621              	.LBE2:
 102:main.c        ****     {
 622              		.loc 1 102 0
 623 0016 002C     		cmp	r4, #0
 624 0018 F7D1     		bne	.L56
 111:main.c        **** 
 625              		.loc 1 111 0
 626 001a 10BD     		pop	{r4, pc}
 627              		.cfi_endproc
 628              	.LFE65:
 629              		.size	ISR_UART_rx_handler, .-ISR_UART_rx_handler
 630              		.section	.text.drive,"ax",%progbits
 631              		.align	2
 632              		.global	drive
 633              		.thumb
 634              		.thumb_func
 635              		.type	drive, %function
 636              	drive:
 637              	.LFB75:
 247:main.c        ****     if (stepBool)
 638              		.loc 1 247 0
 639              		.cfi_startproc
 640              		@ args = 0, pretend = 0, frame = 0
 641              		@ frame_needed = 0, uses_anonymous_args = 0
 642 0000 08B5     		push	{r3, lr}
 643              		.cfi_def_cfa_offset 8
 644              		.cfi_offset 3, -8
 645              		.cfi_offset 14, -4
 248:main.c        ****     {
 646              		.loc 1 248 0
 647 0002 984B     		ldr	r3, .L96
 648 0004 1B78     		ldrb	r3, [r3]	@ zero_extendqisi2
 649 0006 002B     		cmp	r3, #0
 650 0008 00F02A81 		beq	.L58
 250:main.c        ****     {
 651              		.loc 1 250 0
ARM GAS  C:\Users\esben\AppData\Local\Temp\cc1aKaQm.s 			page 21


 652 000c 964B     		ldr	r3, .L96+4
 653 000e 5B78     		ldrb	r3, [r3, #1]	@ zero_extendqisi2
 654 0010 002B     		cmp	r3, #0
 655 0012 40F08B80 		bne	.L60
 252:main.c        ****         {
 656              		.loc 1 252 0
 657 0016 944B     		ldr	r3, .L96+4
 658 0018 1B78     		ldrb	r3, [r3]	@ zero_extendqisi2
 659 001a 002B     		cmp	r3, #0
 660 001c 41D1     		bne	.L61
 254:main.c        ****             {
 661              		.loc 1 254 0
 662 001e 924B     		ldr	r3, .L96+4
 663 0020 DB78     		ldrb	r3, [r3, #3]	@ zero_extendqisi2
 664 0022 062B     		cmp	r3, #6
 665 0024 2DD8     		bhi	.L62
 666 0026 DFE803F0 		tbb	[pc, r3]
 667              	.L64:
 668 002a 04       		.byte	(.L63-.L64)/2
 669 002b 2C       		.byte	(.L62-.L64)/2
 670 002c 0E       		.byte	(.L65-.L64)/2
 671 002d 2C       		.byte	(.L62-.L64)/2
 672 002e 18       		.byte	(.L66-.L64)/2
 673 002f 2C       		.byte	(.L62-.L64)/2
 674 0030 22       		.byte	(.L67-.L64)/2
 675 0031 00       		.p2align 1
 676              	.L63:
 257:main.c        ****                     Pin_A2_Write(1);
 677              		.loc 1 257 0
 678 0032 0020     		movs	r0, #0
 679 0034 FFF7FEFF 		bl	Pin_A1_Write
 680              	.LVL54:
 258:main.c        ****                     stepState = A2;
 681              		.loc 1 258 0
 682 0038 0120     		movs	r0, #1
 683 003a FFF7FEFF 		bl	Pin_A2_Write
 684              	.LVL55:
 259:main.c        ****                     break;
 685              		.loc 1 259 0
 686 003e 0222     		movs	r2, #2
 687 0040 894B     		ldr	r3, .L96+4
 688 0042 DA70     		strb	r2, [r3, #3]
 260:main.c        ****                 case A2:
 689              		.loc 1 260 0
 690 0044 FFE0     		b	.L68
 691              	.L65:
 262:main.c        ****                     Pin_B1_Write(1);
 692              		.loc 1 262 0
 693 0046 0020     		movs	r0, #0
 694 0048 FFF7FEFF 		bl	Pin_A2_Write
 695              	.LVL56:
 263:main.c        ****                     stepState = B1;
 696              		.loc 1 263 0
 697 004c 0120     		movs	r0, #1
 698 004e FFF7FEFF 		bl	Pin_B1_Write
 699              	.LVL57:
 264:main.c        ****                     break;
ARM GAS  C:\Users\esben\AppData\Local\Temp\cc1aKaQm.s 			page 22


 700              		.loc 1 264 0
 701 0052 0422     		movs	r2, #4
 702 0054 844B     		ldr	r3, .L96+4
 703 0056 DA70     		strb	r2, [r3, #3]
 265:main.c        ****                 case B1:
 704              		.loc 1 265 0
 705 0058 F5E0     		b	.L68
 706              	.L66:
 267:main.c        ****                     Pin_B2_Write(1);
 707              		.loc 1 267 0
 708 005a 0020     		movs	r0, #0
 709 005c FFF7FEFF 		bl	Pin_B1_Write
 710              	.LVL58:
 268:main.c        ****                     stepState = B2;
 711              		.loc 1 268 0
 712 0060 0120     		movs	r0, #1
 713 0062 FFF7FEFF 		bl	Pin_B2_Write
 714              	.LVL59:
 269:main.c        ****                     break;
 715              		.loc 1 269 0
 716 0066 0622     		movs	r2, #6
 717 0068 7F4B     		ldr	r3, .L96+4
 718 006a DA70     		strb	r2, [r3, #3]
 270:main.c        ****                 case B2:
 719              		.loc 1 270 0
 720 006c EBE0     		b	.L68
 721              	.L67:
 272:main.c        ****                     Pin_A1_Write(1);
 722              		.loc 1 272 0
 723 006e 0020     		movs	r0, #0
 724 0070 FFF7FEFF 		bl	Pin_B2_Write
 725              	.LVL60:
 273:main.c        ****                     stepState = A1;
 726              		.loc 1 273 0
 727 0074 0120     		movs	r0, #1
 728 0076 FFF7FEFF 		bl	Pin_A1_Write
 729              	.LVL61:
 274:main.c        ****                     break;
 730              		.loc 1 274 0
 731 007a 0022     		movs	r2, #0
 732 007c 7A4B     		ldr	r3, .L96+4
 733 007e DA70     		strb	r2, [r3, #3]
 275:main.c        ****                 default:
 734              		.loc 1 275 0
 735 0080 E1E0     		b	.L68
 736              	.L62:
 278:main.c        ****                     Pin_B2_Write(0);
 737              		.loc 1 278 0
 738 0082 0020     		movs	r0, #0
 739 0084 FFF7FEFF 		bl	Pin_B1_Write
 740              	.LVL62:
 279:main.c        ****                     Pin_A2_Write(0);
 741              		.loc 1 279 0
 742 0088 0020     		movs	r0, #0
 743 008a FFF7FEFF 		bl	Pin_B2_Write
 744              	.LVL63:
 280:main.c        ****                     Pin_A1_Write(1);
ARM GAS  C:\Users\esben\AppData\Local\Temp\cc1aKaQm.s 			page 23


 745              		.loc 1 280 0
 746 008e 0020     		movs	r0, #0
 747 0090 FFF7FEFF 		bl	Pin_A2_Write
 748              	.LVL64:
 281:main.c        ****                     stepState = A1;
 749              		.loc 1 281 0
 750 0094 0120     		movs	r0, #1
 751 0096 FFF7FEFF 		bl	Pin_A1_Write
 752              	.LVL65:
 282:main.c        ****                     break;
 753              		.loc 1 282 0
 754 009a 0022     		movs	r2, #0
 755 009c 724B     		ldr	r3, .L96+4
 756 009e DA70     		strb	r2, [r3, #3]
 283:main.c        ****             }
 757              		.loc 1 283 0
 758 00a0 D1E0     		b	.L68
 759              	.L61:
 286:main.c        ****         {
 760              		.loc 1 286 0
 761 00a2 012B     		cmp	r3, #1
 762 00a4 40F0CF80 		bne	.L68
 288:main.c        ****             {
 763              		.loc 1 288 0
 764 00a8 6F4B     		ldr	r3, .L96+4
 765 00aa DB78     		ldrb	r3, [r3, #3]	@ zero_extendqisi2
 766 00ac 062B     		cmp	r3, #6
 767 00ae 2DD8     		bhi	.L69
 768 00b0 DFE803F0 		tbb	[pc, r3]
 769              	.L71:
 770 00b4 04       		.byte	(.L70-.L71)/2
 771 00b5 2C       		.byte	(.L69-.L71)/2
 772 00b6 0E       		.byte	(.L72-.L71)/2
 773 00b7 2C       		.byte	(.L69-.L71)/2
 774 00b8 18       		.byte	(.L73-.L71)/2
 775 00b9 2C       		.byte	(.L69-.L71)/2
 776 00ba 22       		.byte	(.L74-.L71)/2
 777 00bb 00       		.p2align 1
 778              	.L70:
 291:main.c        ****                     Pin_B2_Write(1);
 779              		.loc 1 291 0
 780 00bc 0020     		movs	r0, #0
 781 00be FFF7FEFF 		bl	Pin_A1_Write
 782              	.LVL66:
 292:main.c        ****                     stepState = B2;
 783              		.loc 1 292 0
 784 00c2 0120     		movs	r0, #1
 785 00c4 FFF7FEFF 		bl	Pin_B2_Write
 786              	.LVL67:
 293:main.c        ****                     break;
 787              		.loc 1 293 0
 788 00c8 0622     		movs	r2, #6
 789 00ca 674B     		ldr	r3, .L96+4
 790 00cc DA70     		strb	r2, [r3, #3]
 294:main.c        ****                 case A2:
 791              		.loc 1 294 0
 792 00ce BAE0     		b	.L68
ARM GAS  C:\Users\esben\AppData\Local\Temp\cc1aKaQm.s 			page 24


 793              	.L72:
 296:main.c        ****                     Pin_A1_Write(1);
 794              		.loc 1 296 0
 795 00d0 0020     		movs	r0, #0
 796 00d2 FFF7FEFF 		bl	Pin_A2_Write
 797              	.LVL68:
 297:main.c        ****                     stepState = A1;
 798              		.loc 1 297 0
 799 00d6 0120     		movs	r0, #1
 800 00d8 FFF7FEFF 		bl	Pin_A1_Write
 801              	.LVL69:
 298:main.c        ****                     break;
 802              		.loc 1 298 0
 803 00dc 0022     		movs	r2, #0
 804 00de 624B     		ldr	r3, .L96+4
 805 00e0 DA70     		strb	r2, [r3, #3]
 299:main.c        ****                 case B1:
 806              		.loc 1 299 0
 807 00e2 B0E0     		b	.L68
 808              	.L73:
 301:main.c        ****                     Pin_A2_Write(1);
 809              		.loc 1 301 0
 810 00e4 0020     		movs	r0, #0
 811 00e6 FFF7FEFF 		bl	Pin_B1_Write
 812              	.LVL70:
 302:main.c        ****                     stepState = A2;
 813              		.loc 1 302 0
 814 00ea 0120     		movs	r0, #1
 815 00ec FFF7FEFF 		bl	Pin_A2_Write
 816              	.LVL71:
 303:main.c        ****                     break;
 817              		.loc 1 303 0
 818 00f0 0222     		movs	r2, #2
 819 00f2 5D4B     		ldr	r3, .L96+4
 820 00f4 DA70     		strb	r2, [r3, #3]
 304:main.c        ****                 case B2:
 821              		.loc 1 304 0
 822 00f6 A6E0     		b	.L68
 823              	.L74:
 306:main.c        ****                     Pin_B1_Write(1);
 824              		.loc 1 306 0
 825 00f8 0020     		movs	r0, #0
 826 00fa FFF7FEFF 		bl	Pin_B2_Write
 827              	.LVL72:
 307:main.c        ****                     stepState = B1;
 828              		.loc 1 307 0
 829 00fe 0120     		movs	r0, #1
 830 0100 FFF7FEFF 		bl	Pin_B1_Write
 831              	.LVL73:
 308:main.c        ****                     break;
 832              		.loc 1 308 0
 833 0104 0422     		movs	r2, #4
 834 0106 584B     		ldr	r3, .L96+4
 835 0108 DA70     		strb	r2, [r3, #3]
 309:main.c        ****                 default:
 836              		.loc 1 309 0
 837 010a 9CE0     		b	.L68
ARM GAS  C:\Users\esben\AppData\Local\Temp\cc1aKaQm.s 			page 25


 838              	.L69:
 312:main.c        ****                     Pin_B2_Write(0);
 839              		.loc 1 312 0
 840 010c 0020     		movs	r0, #0
 841 010e FFF7FEFF 		bl	Pin_B1_Write
 842              	.LVL74:
 313:main.c        ****                     Pin_A2_Write(0);
 843              		.loc 1 313 0
 844 0112 0020     		movs	r0, #0
 845 0114 FFF7FEFF 		bl	Pin_B2_Write
 846              	.LVL75:
 314:main.c        ****                     Pin_A1_Write(1);
 847              		.loc 1 314 0
 848 0118 0020     		movs	r0, #0
 849 011a FFF7FEFF 		bl	Pin_A2_Write
 850              	.LVL76:
 315:main.c        ****                     stepState = A1;
 851              		.loc 1 315 0
 852 011e 0120     		movs	r0, #1
 853 0120 FFF7FEFF 		bl	Pin_A1_Write
 854              	.LVL77:
 316:main.c        ****                     break;
 855              		.loc 1 316 0
 856 0124 0022     		movs	r2, #0
 857 0126 504B     		ldr	r3, .L96+4
 858 0128 DA70     		strb	r2, [r3, #3]
 317:main.c        ****             }
 859              		.loc 1 317 0
 860 012a 8CE0     		b	.L68
 861              	.L60:
 322:main.c        ****     {
 862              		.loc 1 322 0
 863 012c 012B     		cmp	r3, #1
 864 012e 40F08A80 		bne	.L68
 324:main.c        ****         {
 865              		.loc 1 324 0
 866 0132 4D4B     		ldr	r3, .L96+4
 867 0134 1B78     		ldrb	r3, [r3]	@ zero_extendqisi2
 868 0136 002B     		cmp	r3, #0
 869 0138 42D1     		bne	.L75
 326:main.c        ****             {
 870              		.loc 1 326 0
 871 013a 4B4B     		ldr	r3, .L96+4
 872 013c DB78     		ldrb	r3, [r3, #3]	@ zero_extendqisi2
 873 013e 072B     		cmp	r3, #7
 874 0140 00F28180 		bhi	.L68
 875 0144 DFE803F0 		tbb	[pc, r3]
 876              	.L77:
 877 0148 04       		.byte	(.L76-.L77)/2
 878 0149 0B       		.byte	(.L78-.L77)/2
 879 014a 12       		.byte	(.L79-.L77)/2
 880 014b 19       		.byte	(.L80-.L77)/2
 881 014c 20       		.byte	(.L81-.L77)/2
 882 014d 27       		.byte	(.L82-.L77)/2
 883 014e 2E       		.byte	(.L83-.L77)/2
 884 014f 35       		.byte	(.L84-.L77)/2
 885              		.p2align 1
ARM GAS  C:\Users\esben\AppData\Local\Temp\cc1aKaQm.s 			page 26


 886              	.L76:
 329:main.c        ****                     stepState = A1A2;
 887              		.loc 1 329 0
 888 0150 0120     		movs	r0, #1
 889 0152 FFF7FEFF 		bl	Pin_A2_Write
 890              	.LVL78:
 330:main.c        ****                     break;
 891              		.loc 1 330 0
 892 0156 0122     		movs	r2, #1
 893 0158 434B     		ldr	r3, .L96+4
 894 015a DA70     		strb	r2, [r3, #3]
 331:main.c        ****                 case A1A2:
 895              		.loc 1 331 0
 896 015c 73E0     		b	.L68
 897              	.L78:
 333:main.c        ****                     stepState = A2;
 898              		.loc 1 333 0
 899 015e 0020     		movs	r0, #0
 900 0160 FFF7FEFF 		bl	Pin_A1_Write
 901              	.LVL79:
 334:main.c        ****                     break;
 902              		.loc 1 334 0
 903 0164 0222     		movs	r2, #2
 904 0166 404B     		ldr	r3, .L96+4
 905 0168 DA70     		strb	r2, [r3, #3]
 335:main.c        ****                 case A2:
 906              		.loc 1 335 0
 907 016a 6CE0     		b	.L68
 908              	.L79:
 337:main.c        ****                     stepState = A2B1;
 909              		.loc 1 337 0
 910 016c 0120     		movs	r0, #1
 911 016e FFF7FEFF 		bl	Pin_B1_Write
 912              	.LVL80:
 338:main.c        ****                     break;
 913              		.loc 1 338 0
 914 0172 0322     		movs	r2, #3
 915 0174 3C4B     		ldr	r3, .L96+4
 916 0176 DA70     		strb	r2, [r3, #3]
 339:main.c        ****                 case A2B1:
 917              		.loc 1 339 0
 918 0178 65E0     		b	.L68
 919              	.L80:
 341:main.c        ****                     stepState = B1;
 920              		.loc 1 341 0
 921 017a 0020     		movs	r0, #0
 922 017c FFF7FEFF 		bl	Pin_A2_Write
 923              	.LVL81:
 342:main.c        ****                     break;
 924              		.loc 1 342 0
 925 0180 0422     		movs	r2, #4
 926 0182 394B     		ldr	r3, .L96+4
 927 0184 DA70     		strb	r2, [r3, #3]
 343:main.c        ****                 case B1:
 928              		.loc 1 343 0
 929 0186 5EE0     		b	.L68
 930              	.L81:
ARM GAS  C:\Users\esben\AppData\Local\Temp\cc1aKaQm.s 			page 27


 345:main.c        ****                     stepState = B1B2;
 931              		.loc 1 345 0
 932 0188 0120     		movs	r0, #1
 933 018a FFF7FEFF 		bl	Pin_B2_Write
 934              	.LVL82:
 346:main.c        ****                     break;
 935              		.loc 1 346 0
 936 018e 0522     		movs	r2, #5
 937 0190 354B     		ldr	r3, .L96+4
 938 0192 DA70     		strb	r2, [r3, #3]
 347:main.c        ****                 case B1B2:
 939              		.loc 1 347 0
 940 0194 57E0     		b	.L68
 941              	.L82:
 349:main.c        ****                     stepState = B2;
 942              		.loc 1 349 0
 943 0196 0020     		movs	r0, #0
 944 0198 FFF7FEFF 		bl	Pin_B1_Write
 945              	.LVL83:
 350:main.c        ****                     break;
 946              		.loc 1 350 0
 947 019c 0622     		movs	r2, #6
 948 019e 324B     		ldr	r3, .L96+4
 949 01a0 DA70     		strb	r2, [r3, #3]
 351:main.c        ****                 case B2:
 950              		.loc 1 351 0
 951 01a2 50E0     		b	.L68
 952              	.L83:
 353:main.c        ****                     stepState = B2A1;
 953              		.loc 1 353 0
 954 01a4 0120     		movs	r0, #1
 955 01a6 FFF7FEFF 		bl	Pin_A1_Write
 956              	.LVL84:
 354:main.c        ****                     break;
 957              		.loc 1 354 0
 958 01aa 0722     		movs	r2, #7
 959 01ac 2E4B     		ldr	r3, .L96+4
 960 01ae DA70     		strb	r2, [r3, #3]
 355:main.c        ****                 case B2A1:
 961              		.loc 1 355 0
 962 01b0 49E0     		b	.L68
 963              	.L84:
 357:main.c        ****                     stepState = A1;
 964              		.loc 1 357 0
 965 01b2 0020     		movs	r0, #0
 966 01b4 FFF7FEFF 		bl	Pin_B2_Write
 967              	.LVL85:
 358:main.c        ****                     break;
 968              		.loc 1 358 0
 969 01b8 0022     		movs	r2, #0
 970 01ba 2B4B     		ldr	r3, .L96+4
 971 01bc DA70     		strb	r2, [r3, #3]
 359:main.c        ****             }    
 972              		.loc 1 359 0
 973 01be 42E0     		b	.L68
 974              	.L75:
 362:main.c        ****         {
ARM GAS  C:\Users\esben\AppData\Local\Temp\cc1aKaQm.s 			page 28


 975              		.loc 1 362 0
 976 01c0 012B     		cmp	r3, #1
 977 01c2 40D1     		bne	.L68
 364:main.c        ****             {
 978              		.loc 1 364 0
 979 01c4 284B     		ldr	r3, .L96+4
 980 01c6 DB78     		ldrb	r3, [r3, #3]	@ zero_extendqisi2
 981 01c8 072B     		cmp	r3, #7
 982 01ca 3CD8     		bhi	.L68
 983 01cc DFE803F0 		tbb	[pc, r3]
 984              	.L86:
 985 01d0 04       		.byte	(.L85-.L86)/2
 986 01d1 0B       		.byte	(.L87-.L86)/2
 987 01d2 12       		.byte	(.L88-.L86)/2
 988 01d3 19       		.byte	(.L89-.L86)/2
 989 01d4 20       		.byte	(.L90-.L86)/2
 990 01d5 27       		.byte	(.L91-.L86)/2
 991 01d6 2E       		.byte	(.L92-.L86)/2
 992 01d7 35       		.byte	(.L93-.L86)/2
 993              		.p2align 1
 994              	.L85:
 367:main.c        ****                     stepState = B2A1;
 995              		.loc 1 367 0
 996 01d8 0120     		movs	r0, #1
 997 01da FFF7FEFF 		bl	Pin_B2_Write
 998              	.LVL86:
 368:main.c        ****                     break;
 999              		.loc 1 368 0
 1000 01de 0722     		movs	r2, #7
 1001 01e0 214B     		ldr	r3, .L96+4
 1002 01e2 DA70     		strb	r2, [r3, #3]
 369:main.c        ****                 case A1A2:
 1003              		.loc 1 369 0
 1004 01e4 2FE0     		b	.L68
 1005              	.L87:
 371:main.c        ****                     stepState = A1;
 1006              		.loc 1 371 0
 1007 01e6 0020     		movs	r0, #0
 1008 01e8 FFF7FEFF 		bl	Pin_A2_Write
 1009              	.LVL87:
 372:main.c        ****                     break;
 1010              		.loc 1 372 0
 1011 01ec 0022     		movs	r2, #0
 1012 01ee 1E4B     		ldr	r3, .L96+4
 1013 01f0 DA70     		strb	r2, [r3, #3]
 373:main.c        ****                 case A2:
 1014              		.loc 1 373 0
 1015 01f2 28E0     		b	.L68
 1016              	.L88:
 375:main.c        ****                     stepState = A1A2;
 1017              		.loc 1 375 0
 1018 01f4 0120     		movs	r0, #1
 1019 01f6 FFF7FEFF 		bl	Pin_A1_Write
 1020              	.LVL88:
 376:main.c        ****                     break;
 1021              		.loc 1 376 0
 1022 01fa 0122     		movs	r2, #1
ARM GAS  C:\Users\esben\AppData\Local\Temp\cc1aKaQm.s 			page 29


 1023 01fc 1A4B     		ldr	r3, .L96+4
 1024 01fe DA70     		strb	r2, [r3, #3]
 377:main.c        ****                 case A2B1:
 1025              		.loc 1 377 0
 1026 0200 21E0     		b	.L68
 1027              	.L89:
 379:main.c        ****                     stepState = A2;
 1028              		.loc 1 379 0
 1029 0202 0020     		movs	r0, #0
 1030 0204 FFF7FEFF 		bl	Pin_B1_Write
 1031              	.LVL89:
 380:main.c        ****                     break;
 1032              		.loc 1 380 0
 1033 0208 0222     		movs	r2, #2
 1034 020a 174B     		ldr	r3, .L96+4
 1035 020c DA70     		strb	r2, [r3, #3]
 381:main.c        ****                 case B1:
 1036              		.loc 1 381 0
 1037 020e 1AE0     		b	.L68
 1038              	.L90:
 383:main.c        ****                     stepState = A2B1;
 1039              		.loc 1 383 0
 1040 0210 0120     		movs	r0, #1
 1041 0212 FFF7FEFF 		bl	Pin_A2_Write
 1042              	.LVL90:
 384:main.c        ****                     break;
 1043              		.loc 1 384 0
 1044 0216 0322     		movs	r2, #3
 1045 0218 134B     		ldr	r3, .L96+4
 1046 021a DA70     		strb	r2, [r3, #3]
 385:main.c        ****                 case B1B2:
 1047              		.loc 1 385 0
 1048 021c 13E0     		b	.L68
 1049              	.L91:
 387:main.c        ****                     stepState = B1;
 1050              		.loc 1 387 0
 1051 021e 0020     		movs	r0, #0
 1052 0220 FFF7FEFF 		bl	Pin_B2_Write
 1053              	.LVL91:
 388:main.c        ****                     break;
 1054              		.loc 1 388 0
 1055 0224 0422     		movs	r2, #4
 1056 0226 104B     		ldr	r3, .L96+4
 1057 0228 DA70     		strb	r2, [r3, #3]
 389:main.c        ****                 case B2:
 1058              		.loc 1 389 0
 1059 022a 0CE0     		b	.L68
 1060              	.L92:
 391:main.c        ****                     stepState = B1B2;
 1061              		.loc 1 391 0
 1062 022c 0120     		movs	r0, #1
 1063 022e FFF7FEFF 		bl	Pin_B1_Write
 1064              	.LVL92:
 392:main.c        ****                     break;
 1065              		.loc 1 392 0
 1066 0232 0522     		movs	r2, #5
 1067 0234 0C4B     		ldr	r3, .L96+4
ARM GAS  C:\Users\esben\AppData\Local\Temp\cc1aKaQm.s 			page 30


 1068 0236 DA70     		strb	r2, [r3, #3]
 393:main.c        ****                 case B2A1:
 1069              		.loc 1 393 0
 1070 0238 05E0     		b	.L68
 1071              	.L93:
 395:main.c        ****                     stepState = B2;
 1072              		.loc 1 395 0
 1073 023a 0020     		movs	r0, #0
 1074 023c FFF7FEFF 		bl	Pin_A1_Write
 1075              	.LVL93:
 396:main.c        ****                     break;
 1076              		.loc 1 396 0
 1077 0240 0622     		movs	r2, #6
 1078 0242 094B     		ldr	r3, .L96+4
 1079 0244 DA70     		strb	r2, [r3, #3]
 1080              	.L68:
 401:main.c        ****     {
 1081              		.loc 1 401 0
 1082 0246 084B     		ldr	r3, .L96+4
 1083 0248 9B78     		ldrb	r3, [r3, #2]	@ zero_extendqisi2
 1084 024a 33B1     		cbz	r3, .L94
 403:main.c        ****         if (!counter)
 1085              		.loc 1 403 0
 1086 024c 013B     		subs	r3, r3, #1
 1087 024e DBB2     		uxtb	r3, r3
 1088 0250 054A     		ldr	r2, .L96+4
 1089 0252 9370     		strb	r3, [r2, #2]
 404:main.c        ****         {
 1090              		.loc 1 404 0
 1091 0254 0BB9     		cbnz	r3, .L94
 406:main.c        ****         }
 1092              		.loc 1 406 0
 1093 0256 FFF7FEFF 		bl	Timer_1_Sleep
 1094              	.LVL94:
 1095              	.L94:
 409:main.c        ****     }
 1096              		.loc 1 409 0
 1097 025a 0022     		movs	r2, #0
 1098 025c 014B     		ldr	r3, .L96
 1099 025e 1A70     		strb	r2, [r3]
 1100              	.L58:
 1101 0260 08BD     		pop	{r3, pc}
 1102              	.L97:
 1103 0262 00BF     		.align	2
 1104              	.L96:
 1105 0264 00000000 		.word	.LANCHOR0
 1106 0268 00000000 		.word	.LANCHOR1
 1107              		.cfi_endproc
 1108              	.LFE75:
 1109              		.size	drive, .-drive
 1110              		.section	.text.main,"ax",%progbits
 1111              		.align	2
 1112              		.global	main
 1113              		.thumb
 1114              		.thumb_func
 1115              		.type	main, %function
 1116              	main:
ARM GAS  C:\Users\esben\AppData\Local\Temp\cc1aKaQm.s 			page 31


 1117              	.LFB64:
  62:main.c        ****     CyGlobalIntEnable; /* Enable global interrupts. */
 1118              		.loc 1 62 0
 1119              		.cfi_startproc
 1120              		@ Volatile: function does not return.
 1121              		@ args = 0, pretend = 0, frame = 0
 1122              		@ frame_needed = 0, uses_anonymous_args = 0
 1123 0000 08B5     		push	{r3, lr}
 1124              		.cfi_def_cfa_offset 8
 1125              		.cfi_offset 3, -8
 1126              		.cfi_offset 14, -4
  63:main.c        **** 
 1127              		.loc 1 63 0
 1128              		.syntax unified
 1129              	@ 63 "main.c" 1
 1130 0002 62B6     		CPSIE   i
 1131              	@ 0 "" 2
  68:main.c        ****     isr_timer_StartEx(ISR_Timer);
 1132              		.loc 1 68 0
 1133              		.thumb
 1134              		.syntax unified
 1135 0004 1648     		ldr	r0, .L101
 1136 0006 FFF7FEFF 		bl	isr_uart_rx_StartEx
 1137              	.LVL95:
  69:main.c        ****     Timer_1_Start();
 1138              		.loc 1 69 0
 1139 000a 1648     		ldr	r0, .L101+4
 1140 000c FFF7FEFF 		bl	isr_timer_StartEx
 1141              	.LVL96:
  70:main.c        ****     UART_1_Start();
 1142              		.loc 1 70 0
 1143 0010 FFF7FEFF 		bl	Timer_1_Start
 1144              	.LVL97:
  71:main.c        ****     
 1145              		.loc 1 71 0
 1146 0014 FFF7FEFF 		bl	UART_1_Start
 1147              	.LVL98:
  73:main.c        ****     UART_1_PutString("0: Stop\r\n");
 1148              		.loc 1 73 0
 1149 0018 1348     		ldr	r0, .L101+8
 1150 001a FFF7FEFF 		bl	UART_1_PutString
 1151              	.LVL99:
  74:main.c        ****     UART_1_PutString("1: Drive forwards\r\n");
 1152              		.loc 1 74 0
 1153 001e 1348     		ldr	r0, .L101+12
 1154 0020 FFF7FEFF 		bl	UART_1_PutString
 1155              	.LVL100:
  75:main.c        ****     UART_1_PutString("2: Drive backwards\r\n");
 1156              		.loc 1 75 0
 1157 0024 1248     		ldr	r0, .L101+16
 1158 0026 FFF7FEFF 		bl	UART_1_PutString
 1159              	.LVL101:
  76:main.c        ****     UART_1_PutString("q: Decrease speed\r\n");
 1160              		.loc 1 76 0
 1161 002a 1248     		ldr	r0, .L101+20
 1162 002c FFF7FEFF 		bl	UART_1_PutString
 1163              	.LVL102:
ARM GAS  C:\Users\esben\AppData\Local\Temp\cc1aKaQm.s 			page 32


  77:main.c        ****     UART_1_PutString("w: Increase speed\r\n");
 1164              		.loc 1 77 0
 1165 0030 1148     		ldr	r0, .L101+24
 1166 0032 FFF7FEFF 		bl	UART_1_PutString
 1167              	.LVL103:
  78:main.c        ****     UART_1_PutString("a: Select drive state\r\n");
 1168              		.loc 1 78 0
 1169 0036 1148     		ldr	r0, .L101+28
 1170 0038 FFF7FEFF 		bl	UART_1_PutString
 1171              	.LVL104:
  79:main.c        ****     UART_1_PutString("e: One Rotation\r\n");
 1172              		.loc 1 79 0
 1173 003c 1048     		ldr	r0, .L101+32
 1174 003e FFF7FEFF 		bl	UART_1_PutString
 1175              	.LVL105:
  80:main.c        ****     
 1176              		.loc 1 80 0
 1177 0042 1048     		ldr	r0, .L101+36
 1178 0044 FFF7FEFF 		bl	UART_1_PutString
 1179              	.LVL106:
  82:main.c        ****     stepState = A1;
 1180              		.loc 1 82 0
 1181 0048 0F4B     		ldr	r3, .L101+40
 1182 004a 0022     		movs	r2, #0
 1183 004c 5A70     		strb	r2, [r3, #1]
  83:main.c        ****     directionState = FORWARDS;
 1184              		.loc 1 83 0
 1185 004e DA70     		strb	r2, [r3, #3]
  84:main.c        ****     
 1186              		.loc 1 84 0
 1187 0050 1A70     		strb	r2, [r3]
  86:main.c        ****     
 1188              		.loc 1 86 0
 1189 0052 0122     		movs	r2, #1
 1190 0054 0D4B     		ldr	r3, .L101+44
 1191 0056 1A70     		strb	r2, [r3]
 1192              	.L99:
  91:main.c        ****         //CyDelay(500);
 1193              		.loc 1 91 0 discriminator 1
 1194 0058 FFF7FEFF 		bl	drive
 1195              	.LVL107:
 1196 005c FCE7     		b	.L99
 1197              	.L102:
 1198 005e 00BF     		.align	2
 1199              	.L101:
 1200 0060 00000000 		.word	ISR_UART_rx_handler
 1201 0064 00000000 		.word	ISR_Timer
 1202 0068 A0000000 		.word	.LC8
 1203 006c C4000000 		.word	.LC9
 1204 0070 D0000000 		.word	.LC10
 1205 0074 E4000000 		.word	.LC11
 1206 0078 FC000000 		.word	.LC12
 1207 007c 10010000 		.word	.LC13
 1208 0080 24010000 		.word	.LC14
 1209 0084 3C010000 		.word	.LC15
 1210 0088 00000000 		.word	.LANCHOR1
 1211 008c 00000000 		.word	.LANCHOR0
ARM GAS  C:\Users\esben\AppData\Local\Temp\cc1aKaQm.s 			page 33


 1212              		.cfi_endproc
 1213              	.LFE64:
 1214              		.size	main, .-main
 1215              		.data
 1216              		.set	.LANCHOR0,. + 0
 1217              		.type	stepBool, %object
 1218              		.size	stepBool, 1
 1219              	stepBool:
 1220 0000 01       		.byte	1
 1221              		.section	.rodata.str1.4,"aMS",%progbits,1
 1222              		.align	2
 1223              	.LC0:
 1224 0000 44656372 		.ascii	"Decreasing speed\012\015\000"
 1224      65617369 
 1224      6E672073 
 1224      70656564 
 1224      0A0D00
 1225 0013 00       		.space	1
 1226              	.LC1:
 1227 0014 42797465 		.ascii	"Bytes read: %d\015\012\000"
 1227      73207265 
 1227      61643A20 
 1227      25640D0A 
 1227      00
 1228 0025 000000   		.space	3
 1229              	.LC2:
 1230 0028 496E6372 		.ascii	"Increasing speed\012\015\000"
 1230      65617369 
 1230      6E672073 
 1230      70656564 
 1230      0A0D00
 1231 003b 00       		.space	1
 1232              	.LC3:
 1233 003c 53657420 		.ascii	"Set direction: forwards\012\015\000"
 1233      64697265 
 1233      6374696F 
 1233      6E3A2066 
 1233      6F727761 
 1234 0056 0000     		.space	2
 1235              	.LC4:
 1236 0058 53657420 		.ascii	"Set direction: backwards\012\015\000"
 1236      64697265 
 1236      6374696F 
 1236      6E3A2062 
 1236      61636B77 
 1237 0073 00       		.space	1
 1238              	.LC5:
 1239 0074 53746F70 		.ascii	"Stop\012\015\000"
 1239      0A0D00
 1240 007b 00       		.space	1
 1241              	.LC6:
 1242 007c 48616C66 		.ascii	"Half Step Drive\012\015\000"
 1242      20537465 
 1242      70204472 
 1242      6976650A 
 1242      0D00
 1243 008e 0000     		.space	2
ARM GAS  C:\Users\esben\AppData\Local\Temp\cc1aKaQm.s 			page 34


 1244              	.LC7:
 1245 0090 0D576176 		.ascii	"\015Wave Drive\012\015\000"
 1245      65204472 
 1245      6976650A 
 1245      0D00
 1246 009e 0000     		.space	2
 1247              	.LC8:
 1248 00a0 44432D4D 		.ascii	"DC-Motor-PWM application started\015\012\000"
 1248      6F746F72 
 1248      2D50574D 
 1248      20617070 
 1248      6C696361 
 1249 00c3 00       		.space	1
 1250              	.LC9:
 1251 00c4 303A2053 		.ascii	"0: Stop\015\012\000"
 1251      746F700D 
 1251      0A00
 1252 00ce 0000     		.space	2
 1253              	.LC10:
 1254 00d0 313A2044 		.ascii	"1: Drive forwards\015\012\000"
 1254      72697665 
 1254      20666F72 
 1254      77617264 
 1254      730D0A00 
 1255              	.LC11:
 1256 00e4 323A2044 		.ascii	"2: Drive backwards\015\012\000"
 1256      72697665 
 1256      20626163 
 1256      6B776172 
 1256      64730D0A 
 1257 00f9 000000   		.space	3
 1258              	.LC12:
 1259 00fc 713A2044 		.ascii	"q: Decrease speed\015\012\000"
 1259      65637265 
 1259      61736520 
 1259      73706565 
 1259      640D0A00 
 1260              	.LC13:
 1261 0110 773A2049 		.ascii	"w: Increase speed\015\012\000"
 1261      6E637265 
 1261      61736520 
 1261      73706565 
 1261      640D0A00 
 1262              	.LC14:
 1263 0124 613A2053 		.ascii	"a: Select drive state\015\012\000"
 1263      656C6563 
 1263      74206472 
 1263      69766520 
 1263      73746174 
 1264              	.LC15:
 1265 013c 653A204F 		.ascii	"e: One Rotation\015\012\000"
 1265      6E652052 
 1265      6F746174 
 1265      696F6E0D 
 1265      0A00
 1266              		.bss
 1267              		.set	.LANCHOR1,. + 0
ARM GAS  C:\Users\esben\AppData\Local\Temp\cc1aKaQm.s 			page 35


 1268              		.type	directionState, %object
 1269              		.size	directionState, 1
 1270              	directionState:
 1271 0000 00       		.space	1
 1272              		.type	driveState, %object
 1273              		.size	driveState, 1
 1274              	driveState:
 1275 0001 00       		.space	1
 1276              		.type	counter, %object
 1277              		.size	counter, 1
 1278              	counter:
 1279 0002 00       		.space	1
 1280              		.type	stepState, %object
 1281              		.size	stepState, 1
 1282              	stepState:
 1283 0003 00       		.space	1
 1284              		.text
 1285              	.Letext0:
 1286              		.file 2 "c:\\program files (x86)\\cypress\\psoc creator\\4.4\\psoc creator\\import\\gnu\\arm\\5.4.
 1287              		.file 3 "c:\\program files (x86)\\cypress\\psoc creator\\4.4\\psoc creator\\import\\gnu\\arm\\5.4.
 1288              		.file 4 "Generated_Source\\PSoC5/UART_1.h"
 1289              		.file 5 "Generated_Source\\PSoC5/Timer_1.h"
 1290              		.file 6 "c:\\program files (x86)\\cypress\\psoc creator\\4.4\\psoc creator\\import\\gnu\\arm\\5.4.
 1291              		.file 7 "Generated_Source\\PSoC5/Pin_A1.h"
 1292              		.file 8 "Generated_Source\\PSoC5/Pin_A2.h"
 1293              		.file 9 "Generated_Source\\PSoC5/Pin_B1.h"
 1294              		.file 10 "Generated_Source\\PSoC5/Pin_B2.h"
 1295              		.file 11 "Generated_Source\\PSoC5/isr_uart_rx.h"
 1296              		.file 12 "Generated_Source\\PSoC5/isr_timer.h"
 1297              		.file 13 "Generated_Source\\PSoC5/core_cm3.h"