ARM GAS  C:\Users\esben\AppData\Local\Temp\ccjXY94l.s 			page 1


   1              		.syntax unified
   2              		.cpu cortex-m3
   3              		.fpu softvfp
   4              		.eabi_attribute 20, 1
   5              		.eabi_attribute 21, 1
   6              		.eabi_attribute 23, 3
   7              		.eabi_attribute 24, 1
   8              		.eabi_attribute 25, 1
   9              		.eabi_attribute 26, 1
  10              		.eabi_attribute 30, 1
  11              		.eabi_attribute 34, 1
  12              		.eabi_attribute 18, 4
  13              		.thumb
  14              		.syntax unified
  15              		.file	"main.c"
  16              		.text
  17              	.Ltext0:
  18              		.cfi_sections	.debug_frame
  19              		.section	.text.ISR_Timer,"ax",%progbits
  20              		.align	2
  21              		.global	ISR_Timer
  22              		.thumb
  23              		.thumb_func
  24              		.type	ISR_Timer, %function
  25              	ISR_Timer:
  26              	.LFB74:
  27              		.file 1 "main.c"
   1:main.c        **** /* ========================================
   2:main.c        ****  *
   3:main.c        ****  * Copyright YOUR COMPANY, THE YEAR
   4:main.c        ****  * All Rights Reserved
   5:main.c        ****  * UNPUBLISHED, LICENSED SOFTWARE.
   6:main.c        ****  *
   7:main.c        ****  * CONFIDENTIAL AND PROPRIETARY INFORMATION
   8:main.c        ****  * WHICH IS THE PROPERTY OF your company.
   9:main.c        ****  *
  10:main.c        ****  * ========================================
  11:main.c        **** */
  12:main.c        **** #include "project.h"
  13:main.c        **** #include <stdint.h>
  14:main.c        **** #include <stdbool.h>
  15:main.c        **** #include <stdio.h>
  16:main.c        **** 
  17:main.c        **** CY_ISR_PROTO(ISR_UART_rx_handler);
  18:main.c        **** CY_ISR_PROTO(ISR_Timer);
  19:main.c        **** void handleByteReceived(uint8_t byteReceived);
  20:main.c        **** void decreaseSpeed(void);
  21:main.c        **** void increaseSpeed(void);
  22:main.c        **** void driveForwards(void);
  23:main.c        **** void driveBackwards(void);
  24:main.c        **** void switchDriveState(void);
  25:main.c        **** void stop(void);
  26:main.c        **** void drive(void);
  27:main.c        **** 
  28:main.c        **** typedef enum
  29:main.c        **** {
  30:main.c        ****     WAVE_DRIVE,
ARM GAS  C:\Users\esben\AppData\Local\Temp\ccjXY94l.s 			page 2


  31:main.c        ****     HALF_STEP_DRIVE,
  32:main.c        **** }DRIVE_STATE;
  33:main.c        **** 
  34:main.c        **** typedef enum
  35:main.c        **** {
  36:main.c        ****     A1, 
  37:main.c        ****     A1A2, 
  38:main.c        ****     A2, 
  39:main.c        ****     A2B1, 
  40:main.c        ****     B1, 
  41:main.c        ****     B1B2, 
  42:main.c        ****     B2,
  43:main.c        ****     B2A1,
  44:main.c        **** }STEP_STATE;
  45:main.c        **** 
  46:main.c        **** typedef enum
  47:main.c        **** {
  48:main.c        ****     FORWARDS,
  49:main.c        ****     BACKWARDS,
  50:main.c        **** }DIRECTION_STATE;
  51:main.c        **** 
  52:main.c        **** static DRIVE_STATE driveState = WAVE_DRIVE;
  53:main.c        **** static STEP_STATE stepState = A1;
  54:main.c        **** static DIRECTION_STATE directionState = FORWARDS;
  55:main.c        **** static bool stepBool = true;
  56:main.c        **** 
  57:main.c        **** 
  58:main.c        **** 
  59:main.c        **** int main(void)
  60:main.c        **** {
  61:main.c        ****     CyGlobalIntEnable; /* Enable global interrupts. */
  62:main.c        **** 
  63:main.c        ****     /* Place your initialization/startup code here (e.g. MyInst_Start()) */
  64:main.c        ****     //Pin_A1_Write(1); // set initial position
  65:main.c        ****     
  66:main.c        ****     isr_uart_rx_StartEx(ISR_UART_rx_handler);
  67:main.c        ****     isr_timer_StartEx(ISR_Timer);
  68:main.c        ****     Timer_1_Start();
  69:main.c        ****     UART_1_Start();
  70:main.c        ****     
  71:main.c        ****     UART_1_PutString("DC-Motor-PWM application started\r\n");
  72:main.c        ****     UART_1_PutString("0: Stop\r\n");
  73:main.c        ****     UART_1_PutString("1: Drive forwards\r\n");
  74:main.c        ****     UART_1_PutString("2: Drive backwards\r\n");
  75:main.c        ****     UART_1_PutString("q: Decrease speed\r\n");
  76:main.c        ****     UART_1_PutString("w: Increase speed\r\n");
  77:main.c        ****     UART_1_PutString("a: Select drive state\r\n");
  78:main.c        ****     
  79:main.c        ****     driveState = WAVE_DRIVE;
  80:main.c        ****     stepState = A1;
  81:main.c        ****     directionState = FORWARDS;
  82:main.c        ****     char debugBuffer[256]; 
  83:main.c        ****     
  84:main.c        ****     stepBool = true;
  85:main.c        ****     
  86:main.c        ****     for(;;)
  87:main.c        ****     {
ARM GAS  C:\Users\esben\AppData\Local\Temp\ccjXY94l.s 			page 3


  88:main.c        ****         /* Place your application code here. */
  89:main.c        ****         drive();
  90:main.c        ****         //CyDelay(500);
  91:main.c        ****         snprintf(debugBuffer, sizeof(debugBuffer), "\rDriveState %d  Step: %d Direction %d", 
  92:main.c        ****             driveState, stepState, directionState);
  93:main.c        ****         UART_1_PutString(debugBuffer);
  94:main.c        ****     }
  95:main.c        **** }
  96:main.c        **** 
  97:main.c        **** CY_ISR(ISR_UART_rx_handler)
  98:main.c        **** {
  99:main.c        ****     uint8_t bytesToRead = UART_1_GetRxBufferSize();
 100:main.c        ****     while (bytesToRead > 0)
 101:main.c        ****     {
 102:main.c        ****         uint8_t byteReceived = UART_1_ReadRxData();
 103:main.c        ****         // UART_1_WriteTxData(byteReceived); // echo back
 104:main.c        ****         
 105:main.c        ****         handleByteReceived(byteReceived);
 106:main.c        ****         
 107:main.c        ****         bytesToRead--;
 108:main.c        ****     }
 109:main.c        **** }
 110:main.c        **** 
 111:main.c        **** void handleByteReceived(uint8_t byteReceived)
 112:main.c        **** {
 113:main.c        ****     switch(byteReceived)
 114:main.c        ****     {
 115:main.c        ****         case 'q' :
 116:main.c        ****         {
 117:main.c        ****             decreaseSpeed();
 118:main.c        ****         }
 119:main.c        ****         break;
 120:main.c        ****         case 'w' :
 121:main.c        ****         {
 122:main.c        ****             increaseSpeed();
 123:main.c        ****         }
 124:main.c        ****         break;
 125:main.c        ****         case '1' :
 126:main.c        ****         {
 127:main.c        ****             driveForwards();
 128:main.c        ****         }
 129:main.c        ****         break;
 130:main.c        ****         case '2' :
 131:main.c        ****         {
 132:main.c        ****             driveBackwards();
 133:main.c        ****         }
 134:main.c        ****         break;
 135:main.c        ****         case '0' :
 136:main.c        ****         {
 137:main.c        ****             stop();
 138:main.c        ****             
 139:main.c        ****         }
 140:main.c        ****         break;
 141:main.c        ****         case 'a':
 142:main.c        ****         {
 143:main.c        ****             switchDriveState();
 144:main.c        ****         }
ARM GAS  C:\Users\esben\AppData\Local\Temp\ccjXY94l.s 			page 4


 145:main.c        ****         break;
 146:main.c        ****         default :
 147:main.c        ****         {
 148:main.c        ****             // nothing
 149:main.c        ****         }
 150:main.c        ****         break;
 151:main.c        ****     }
 152:main.c        **** }
 153:main.c        **** 
 154:main.c        **** void decreaseSpeed()
 155:main.c        **** {
 156:main.c        ****     UART_1_PutString("Decreasing speed\n\r");
 157:main.c        ****     uint16_t period = Timer_1_ReadPeriod() * 1.5f;
 158:main.c        ****     period = period >= 255 ? 255 : period; 
 159:main.c        ****     
 160:main.c        ****     // For debugging
 161:main.c        ****     char buffer[256];
 162:main.c        ****     snprintf(buffer, sizeof(buffer), "Bytes read: %d\r\n", period);
 163:main.c        ****     UART_1_PutString(buffer);
 164:main.c        ****     
 165:main.c        ****     Timer_1_WritePeriod(period);
 166:main.c        ****     
 167:main.c        **** }
 168:main.c        **** 
 169:main.c        **** void increaseSpeed()
 170:main.c        **** {
 171:main.c        ****     UART_1_PutString("Increasing speed\n\r");
 172:main.c        ****     uint16_t period = Timer_1_ReadPeriod() * 0.75f;
 173:main.c        ****     period = period <= 2 ? 2 : period; 
 174:main.c        ****     
 175:main.c        ****     char buffer[256];
 176:main.c        ****     snprintf(buffer, sizeof(buffer), "Bytes read: %d\r\n", period);
 177:main.c        ****     UART_1_PutString(buffer);
 178:main.c        ****     
 179:main.c        ****     Timer_1_WritePeriod(period);
 180:main.c        ****     
 181:main.c        **** }
 182:main.c        **** 
 183:main.c        **** void driveForwards()
 184:main.c        **** {
 185:main.c        ****     UART_1_PutString("Set direction: forwards\n\r");
 186:main.c        ****     directionState = FORWARDS;
 187:main.c        ****     Timer_1_Start();
 188:main.c        **** }
 189:main.c        **** 
 190:main.c        **** void driveBackwards()
 191:main.c        **** {
 192:main.c        ****     UART_1_PutString("Set direction: backwards\n\r");
 193:main.c        ****     directionState = BACKWARDS;
 194:main.c        ****     Timer_1_Start();
 195:main.c        **** }
 196:main.c        **** 
 197:main.c        **** void stop()
 198:main.c        **** {
 199:main.c        ****     UART_1_PutString("Stop\n\r");
 200:main.c        ****     Timer_1_Sleep();
 201:main.c        ****     stepBool = false;
ARM GAS  C:\Users\esben\AppData\Local\Temp\ccjXY94l.s 			page 5


 202:main.c        **** }
 203:main.c        **** 
 204:main.c        **** void switchDriveState()
 205:main.c        **** {
 206:main.c        ****     if (driveState == WAVE_DRIVE)
 207:main.c        ****     {
 208:main.c        ****         UART_1_PutString("Half Step Drive\n\r");
 209:main.c        ****         driveState = HALF_STEP_DRIVE;
 210:main.c        ****     }
 211:main.c        ****     else
 212:main.c        ****     {
 213:main.c        ****         UART_1_PutString("\rWave Drive\n\r");
 214:main.c        ****         driveState = WAVE_DRIVE;
 215:main.c        ****     }
 216:main.c        **** }
 217:main.c        **** 
 218:main.c        **** void drive()
 219:main.c        **** {
 220:main.c        ****     if (stepBool)
 221:main.c        ****     {
 222:main.c        ****     if (driveState == WAVE_DRIVE)
 223:main.c        ****     {
 224:main.c        ****         if (directionState == FORWARDS)
 225:main.c        ****         {
 226:main.c        ****             switch (stepState)
 227:main.c        ****             {
 228:main.c        ****                 case A1:
 229:main.c        ****                     Pin_A1_Write(0);
 230:main.c        ****                     Pin_A2_Write(1);
 231:main.c        ****                     stepState = A2;
 232:main.c        ****                     break;
 233:main.c        ****                 case A2:
 234:main.c        ****                     Pin_A2_Write(0);
 235:main.c        ****                     Pin_B1_Write(1);
 236:main.c        ****                     stepState = B1;
 237:main.c        ****                     break;
 238:main.c        ****                 case B1:
 239:main.c        ****                     Pin_B1_Write(0);
 240:main.c        ****                     Pin_B2_Write(1);
 241:main.c        ****                     stepState = B2;
 242:main.c        ****                     break;
 243:main.c        ****                 case B2:
 244:main.c        ****                     Pin_B2_Write(0);
 245:main.c        ****                     Pin_A1_Write(1);
 246:main.c        ****                     stepState = A1;
 247:main.c        ****                     break;
 248:main.c        ****                 default:
 249:main.c        ****                     // failsafe hvis vi kommer fra half step drive
 250:main.c        ****                     Pin_B1_Write(0);
 251:main.c        ****                     Pin_B2_Write(0);
 252:main.c        ****                     Pin_A2_Write(0);
 253:main.c        ****                     Pin_A1_Write(1);
 254:main.c        ****                     stepState = A1;
 255:main.c        ****                     break;
 256:main.c        ****             }
 257:main.c        ****         }
 258:main.c        ****         else if (directionState == BACKWARDS)
ARM GAS  C:\Users\esben\AppData\Local\Temp\ccjXY94l.s 			page 6


 259:main.c        ****         {
 260:main.c        ****             switch (stepState)
 261:main.c        ****             {
 262:main.c        ****                 case A1:
 263:main.c        ****                     Pin_A1_Write(0);
 264:main.c        ****                     Pin_B2_Write(1);
 265:main.c        ****                     stepState = B2;
 266:main.c        ****                     break;
 267:main.c        ****                 case A2:
 268:main.c        ****                     Pin_A2_Write(0);
 269:main.c        ****                     Pin_A1_Write(1);
 270:main.c        ****                     stepState = A1;
 271:main.c        ****                     break;
 272:main.c        ****                 case B1:
 273:main.c        ****                     Pin_B1_Write(0);
 274:main.c        ****                     Pin_A2_Write(1);
 275:main.c        ****                     stepState = A2;
 276:main.c        ****                     break;
 277:main.c        ****                 case B2:
 278:main.c        ****                     Pin_B2_Write(0);
 279:main.c        ****                     Pin_B1_Write(1);
 280:main.c        ****                     stepState = B1;
 281:main.c        ****                     break;
 282:main.c        ****                 default:
 283:main.c        ****                     // failsafe hvis vi kommer fra half step drive
 284:main.c        ****                     Pin_B1_Write(0);
 285:main.c        ****                     Pin_B2_Write(0);
 286:main.c        ****                     Pin_A2_Write(0);
 287:main.c        ****                     Pin_A1_Write(1);
 288:main.c        ****                     stepState = A1;
 289:main.c        ****                     break;
 290:main.c        ****             }
 291:main.c        ****         }
 292:main.c        ****     }
 293:main.c        ****     
 294:main.c        ****     else if (driveState == HALF_STEP_DRIVE)
 295:main.c        ****     {
 296:main.c        ****         if (directionState == FORWARDS)
 297:main.c        ****         {
 298:main.c        ****             switch (stepState)
 299:main.c        ****             {
 300:main.c        ****                 case A1:
 301:main.c        ****                     Pin_A2_Write(1);
 302:main.c        ****                     stepState = A1A2;
 303:main.c        ****                     break;
 304:main.c        ****                 case A1A2:
 305:main.c        ****                     Pin_A1_Write(0);
 306:main.c        ****                     stepState = A2;
 307:main.c        ****                     break;
 308:main.c        ****                 case A2:
 309:main.c        ****                     Pin_B1_Write(1);
 310:main.c        ****                     stepState = A2B1;
 311:main.c        ****                     break;
 312:main.c        ****                 case A2B1:
 313:main.c        ****                     Pin_A2_Write(0);
 314:main.c        ****                     stepState = B1;
 315:main.c        ****                     break;
ARM GAS  C:\Users\esben\AppData\Local\Temp\ccjXY94l.s 			page 7


 316:main.c        ****                 case B1:
 317:main.c        ****                     Pin_B2_Write(1);
 318:main.c        ****                     stepState = B1B2;
 319:main.c        ****                     break;
 320:main.c        ****                 case B1B2:
 321:main.c        ****                     Pin_B1_Write(0);
 322:main.c        ****                     stepState = B2;
 323:main.c        ****                     break;
 324:main.c        ****                 case B2:
 325:main.c        ****                     Pin_A1_Write(1);
 326:main.c        ****                     stepState = B2A1;
 327:main.c        ****                     break;
 328:main.c        ****                 case B2A1:
 329:main.c        ****                     Pin_B2_Write(0);
 330:main.c        ****                     stepState = A1;
 331:main.c        ****                     break;
 332:main.c        ****             }    
 333:main.c        ****         }
 334:main.c        ****         else if (directionState == BACKWARDS)
 335:main.c        ****         {
 336:main.c        ****             switch (stepState)
 337:main.c        ****             {
 338:main.c        ****                 case A1:
 339:main.c        ****                     Pin_B2_Write(1);
 340:main.c        ****                     stepState = B2A1;
 341:main.c        ****                     break;
 342:main.c        ****                 case A1A2:
 343:main.c        ****                     Pin_A2_Write(0);
 344:main.c        ****                     stepState = A1;
 345:main.c        ****                     break;
 346:main.c        ****                 case A2:
 347:main.c        ****                     Pin_A1_Write(1);
 348:main.c        ****                     stepState = A1A2;
 349:main.c        ****                     break;
 350:main.c        ****                 case A2B1:
 351:main.c        ****                     Pin_B1_Write(0);
 352:main.c        ****                     stepState = A2;
 353:main.c        ****                     break;
 354:main.c        ****                 case B1:
 355:main.c        ****                     Pin_A2_Write(1);
 356:main.c        ****                     stepState = A2B1;
 357:main.c        ****                     break;
 358:main.c        ****                 case B1B2:
 359:main.c        ****                     Pin_B2_Write(0);
 360:main.c        ****                     stepState = B1;
 361:main.c        ****                     break;
 362:main.c        ****                 case B2:
 363:main.c        ****                     Pin_B1_Write(1);
 364:main.c        ****                     stepState = B1B2;
 365:main.c        ****                     break;
 366:main.c        ****                 case B2A1:
 367:main.c        ****                     Pin_A1_Write(0);
 368:main.c        ****                     stepState = B2;
 369:main.c        ****                     break;
 370:main.c        ****             }
 371:main.c        ****         }
 372:main.c        ****     }
ARM GAS  C:\Users\esben\AppData\Local\Temp\ccjXY94l.s 			page 8


 373:main.c        ****     }
 374:main.c        ****     stepBool = false;
 375:main.c        ****     
 376:main.c        **** }
 377:main.c        **** 
 378:main.c        **** CY_ISR(ISR_Timer)
 379:main.c        **** {
  28              		.loc 1 379 0
  29              		.cfi_startproc
  30              		@ args = 0, pretend = 0, frame = 0
  31              		@ frame_needed = 0, uses_anonymous_args = 0
  32              		@ link register save eliminated.
 380:main.c        ****     //drive();
 381:main.c        ****     stepBool = true;
  33              		.loc 1 381 0
  34 0000 0122     		movs	r2, #1
  35 0002 014B     		ldr	r3, .L2
  36 0004 1A70     		strb	r2, [r3]
  37 0006 7047     		bx	lr
  38              	.L3:
  39              		.align	2
  40              	.L2:
  41 0008 00000000 		.word	.LANCHOR0
  42              		.cfi_endproc
  43              	.LFE74:
  44              		.size	ISR_Timer, .-ISR_Timer
  45              		.global	__aeabi_i2f
  46              		.global	__aeabi_fmul
  47              		.global	__aeabi_f2uiz
  48              		.section	.text.decreaseSpeed,"ax",%progbits
  49              		.align	2
  50              		.global	decreaseSpeed
  51              		.thumb
  52              		.thumb_func
  53              		.type	decreaseSpeed, %function
  54              	decreaseSpeed:
  55              	.LFB67:
 155:main.c        ****     UART_1_PutString("Decreasing speed\n\r");
  56              		.loc 1 155 0
  57              		.cfi_startproc
  58              		@ args = 0, pretend = 0, frame = 256
  59              		@ frame_needed = 0, uses_anonymous_args = 0
  60 0000 10B5     		push	{r4, lr}
  61              		.cfi_def_cfa_offset 8
  62              		.cfi_offset 4, -8
  63              		.cfi_offset 14, -4
  64 0002 C0B0     		sub	sp, sp, #256
  65              		.cfi_def_cfa_offset 264
 156:main.c        ****     uint16_t period = Timer_1_ReadPeriod() * 1.5f;
  66              		.loc 1 156 0
  67 0004 1048     		ldr	r0, .L6
  68 0006 FFF7FEFF 		bl	UART_1_PutString
  69              	.LVL0:
 157:main.c        ****     period = period >= 255 ? 255 : period; 
  70              		.loc 1 157 0
  71 000a FFF7FEFF 		bl	Timer_1_ReadPeriod
  72              	.LVL1:
ARM GAS  C:\Users\esben\AppData\Local\Temp\ccjXY94l.s 			page 9


  73 000e FFF7FEFF 		bl	__aeabi_i2f
  74              	.LVL2:
  75 0012 4FF07F51 		mov	r1, #1069547520
  76 0016 FFF7FEFF 		bl	__aeabi_fmul
  77              	.LVL3:
  78 001a FFF7FEFF 		bl	__aeabi_f2uiz
  79              	.LVL4:
  80 001e 80B2     		uxth	r0, r0
  81              	.LVL5:
 158:main.c        ****     
  82              		.loc 1 158 0
  83 0020 FF28     		cmp	r0, #255
  84 0022 28BF     		it	cs
  85 0024 FF20     		movcs	r0, #255
  86              	.LVL6:
  87 0026 0446     		mov	r4, r0
  88              	.LVL7:
 162:main.c        ****     UART_1_PutString(buffer);
  89              		.loc 1 162 0
  90 0028 0346     		mov	r3, r0
  91 002a 084A     		ldr	r2, .L6+4
  92 002c 4FF48071 		mov	r1, #256
  93 0030 6846     		mov	r0, sp
  94              	.LVL8:
  95 0032 FFF7FEFF 		bl	snprintf
  96              	.LVL9:
 163:main.c        ****     
  97              		.loc 1 163 0
  98 0036 6846     		mov	r0, sp
  99 0038 FFF7FEFF 		bl	UART_1_PutString
 100              	.LVL10:
 165:main.c        ****     
 101              		.loc 1 165 0
 102 003c E0B2     		uxtb	r0, r4
 103 003e FFF7FEFF 		bl	Timer_1_WritePeriod
 104              	.LVL11:
 167:main.c        **** 
 105              		.loc 1 167 0
 106 0042 40B0     		add	sp, sp, #256
 107              		.cfi_def_cfa_offset 8
 108              		@ sp needed
 109 0044 10BD     		pop	{r4, pc}
 110              	.LVL12:
 111              	.L7:
 112 0046 00BF     		.align	2
 113              	.L6:
 114 0048 00000000 		.word	.LC0
 115 004c 14000000 		.word	.LC1
 116              		.cfi_endproc
 117              	.LFE67:
 118              		.size	decreaseSpeed, .-decreaseSpeed
 119              		.section	.text.increaseSpeed,"ax",%progbits
 120              		.align	2
 121              		.global	increaseSpeed
 122              		.thumb
 123              		.thumb_func
 124              		.type	increaseSpeed, %function
ARM GAS  C:\Users\esben\AppData\Local\Temp\ccjXY94l.s 			page 10


 125              	increaseSpeed:
 126              	.LFB68:
 170:main.c        ****     UART_1_PutString("Increasing speed\n\r");
 127              		.loc 1 170 0
 128              		.cfi_startproc
 129              		@ args = 0, pretend = 0, frame = 256
 130              		@ frame_needed = 0, uses_anonymous_args = 0
 131 0000 10B5     		push	{r4, lr}
 132              		.cfi_def_cfa_offset 8
 133              		.cfi_offset 4, -8
 134              		.cfi_offset 14, -4
 135 0002 C0B0     		sub	sp, sp, #256
 136              		.cfi_def_cfa_offset 264
 171:main.c        ****     uint16_t period = Timer_1_ReadPeriod() * 0.75f;
 137              		.loc 1 171 0
 138 0004 1048     		ldr	r0, .L10
 139 0006 FFF7FEFF 		bl	UART_1_PutString
 140              	.LVL13:
 172:main.c        ****     period = period <= 2 ? 2 : period; 
 141              		.loc 1 172 0
 142 000a FFF7FEFF 		bl	Timer_1_ReadPeriod
 143              	.LVL14:
 144 000e FFF7FEFF 		bl	__aeabi_i2f
 145              	.LVL15:
 146 0012 4FF07D51 		mov	r1, #1061158912
 147 0016 FFF7FEFF 		bl	__aeabi_fmul
 148              	.LVL16:
 149 001a FFF7FEFF 		bl	__aeabi_f2uiz
 150              	.LVL17:
 151 001e 80B2     		uxth	r0, r0
 152              	.LVL18:
 173:main.c        ****     
 153              		.loc 1 173 0
 154 0020 0228     		cmp	r0, #2
 155 0022 38BF     		it	cc
 156 0024 0220     		movcc	r0, #2
 157              	.LVL19:
 158 0026 0446     		mov	r4, r0
 159              	.LVL20:
 176:main.c        ****     UART_1_PutString(buffer);
 160              		.loc 1 176 0
 161 0028 0346     		mov	r3, r0
 162 002a 084A     		ldr	r2, .L10+4
 163 002c 4FF48071 		mov	r1, #256
 164 0030 6846     		mov	r0, sp
 165              	.LVL21:
 166 0032 FFF7FEFF 		bl	snprintf
 167              	.LVL22:
 177:main.c        ****     
 168              		.loc 1 177 0
 169 0036 6846     		mov	r0, sp
 170 0038 FFF7FEFF 		bl	UART_1_PutString
 171              	.LVL23:
 179:main.c        ****     
 172              		.loc 1 179 0
 173 003c E0B2     		uxtb	r0, r4
 174 003e FFF7FEFF 		bl	Timer_1_WritePeriod
ARM GAS  C:\Users\esben\AppData\Local\Temp\ccjXY94l.s 			page 11


 175              	.LVL24:
 181:main.c        **** 
 176              		.loc 1 181 0
 177 0042 40B0     		add	sp, sp, #256
 178              		.cfi_def_cfa_offset 8
 179              		@ sp needed
 180 0044 10BD     		pop	{r4, pc}
 181              	.LVL25:
 182              	.L11:
 183 0046 00BF     		.align	2
 184              	.L10:
 185 0048 28000000 		.word	.LC2
 186 004c 14000000 		.word	.LC1
 187              		.cfi_endproc
 188              	.LFE68:
 189              		.size	increaseSpeed, .-increaseSpeed
 190              		.section	.text.driveForwards,"ax",%progbits
 191              		.align	2
 192              		.global	driveForwards
 193              		.thumb
 194              		.thumb_func
 195              		.type	driveForwards, %function
 196              	driveForwards:
 197              	.LFB69:
 184:main.c        ****     UART_1_PutString("Set direction: forwards\n\r");
 198              		.loc 1 184 0
 199              		.cfi_startproc
 200              		@ args = 0, pretend = 0, frame = 0
 201              		@ frame_needed = 0, uses_anonymous_args = 0
 202 0000 08B5     		push	{r3, lr}
 203              		.cfi_def_cfa_offset 8
 204              		.cfi_offset 3, -8
 205              		.cfi_offset 14, -4
 185:main.c        ****     directionState = FORWARDS;
 206              		.loc 1 185 0
 207 0002 0448     		ldr	r0, .L14
 208 0004 FFF7FEFF 		bl	UART_1_PutString
 209              	.LVL26:
 186:main.c        ****     Timer_1_Start();
 210              		.loc 1 186 0
 211 0008 0022     		movs	r2, #0
 212 000a 034B     		ldr	r3, .L14+4
 213 000c 1A70     		strb	r2, [r3]
 187:main.c        **** }
 214              		.loc 1 187 0
 215 000e FFF7FEFF 		bl	Timer_1_Start
 216              	.LVL27:
 217 0012 08BD     		pop	{r3, pc}
 218              	.L15:
 219              		.align	2
 220              	.L14:
 221 0014 3C000000 		.word	.LC3
 222 0018 00000000 		.word	.LANCHOR1
 223              		.cfi_endproc
 224              	.LFE69:
 225              		.size	driveForwards, .-driveForwards
 226              		.section	.text.driveBackwards,"ax",%progbits
ARM GAS  C:\Users\esben\AppData\Local\Temp\ccjXY94l.s 			page 12


 227              		.align	2
 228              		.global	driveBackwards
 229              		.thumb
 230              		.thumb_func
 231              		.type	driveBackwards, %function
 232              	driveBackwards:
 233              	.LFB70:
 191:main.c        ****     UART_1_PutString("Set direction: backwards\n\r");
 234              		.loc 1 191 0
 235              		.cfi_startproc
 236              		@ args = 0, pretend = 0, frame = 0
 237              		@ frame_needed = 0, uses_anonymous_args = 0
 238 0000 08B5     		push	{r3, lr}
 239              		.cfi_def_cfa_offset 8
 240              		.cfi_offset 3, -8
 241              		.cfi_offset 14, -4
 192:main.c        ****     directionState = BACKWARDS;
 242              		.loc 1 192 0
 243 0002 0448     		ldr	r0, .L18
 244 0004 FFF7FEFF 		bl	UART_1_PutString
 245              	.LVL28:
 193:main.c        ****     Timer_1_Start();
 246              		.loc 1 193 0
 247 0008 0122     		movs	r2, #1
 248 000a 034B     		ldr	r3, .L18+4
 249 000c 1A70     		strb	r2, [r3]
 194:main.c        **** }
 250              		.loc 1 194 0
 251 000e FFF7FEFF 		bl	Timer_1_Start
 252              	.LVL29:
 253 0012 08BD     		pop	{r3, pc}
 254              	.L19:
 255              		.align	2
 256              	.L18:
 257 0014 58000000 		.word	.LC4
 258 0018 00000000 		.word	.LANCHOR1
 259              		.cfi_endproc
 260              	.LFE70:
 261              		.size	driveBackwards, .-driveBackwards
 262              		.section	.text.stop,"ax",%progbits
 263              		.align	2
 264              		.global	stop
 265              		.thumb
 266              		.thumb_func
 267              		.type	stop, %function
 268              	stop:
 269              	.LFB71:
 198:main.c        ****     UART_1_PutString("Stop\n\r");
 270              		.loc 1 198 0
 271              		.cfi_startproc
 272              		@ args = 0, pretend = 0, frame = 0
 273              		@ frame_needed = 0, uses_anonymous_args = 0
 274 0000 08B5     		push	{r3, lr}
 275              		.cfi_def_cfa_offset 8
 276              		.cfi_offset 3, -8
 277              		.cfi_offset 14, -4
 199:main.c        ****     Timer_1_Sleep();
ARM GAS  C:\Users\esben\AppData\Local\Temp\ccjXY94l.s 			page 13


 278              		.loc 1 199 0
 279 0002 0448     		ldr	r0, .L22
 280 0004 FFF7FEFF 		bl	UART_1_PutString
 281              	.LVL30:
 200:main.c        ****     stepBool = false;
 282              		.loc 1 200 0
 283 0008 FFF7FEFF 		bl	Timer_1_Sleep
 284              	.LVL31:
 201:main.c        **** }
 285              		.loc 1 201 0
 286 000c 0022     		movs	r2, #0
 287 000e 024B     		ldr	r3, .L22+4
 288 0010 1A70     		strb	r2, [r3]
 289 0012 08BD     		pop	{r3, pc}
 290              	.L23:
 291              		.align	2
 292              	.L22:
 293 0014 74000000 		.word	.LC5
 294 0018 00000000 		.word	.LANCHOR0
 295              		.cfi_endproc
 296              	.LFE71:
 297              		.size	stop, .-stop
 298              		.section	.text.switchDriveState,"ax",%progbits
 299              		.align	2
 300              		.global	switchDriveState
 301              		.thumb
 302              		.thumb_func
 303              		.type	switchDriveState, %function
 304              	switchDriveState:
 305              	.LFB72:
 205:main.c        ****     if (driveState == WAVE_DRIVE)
 306              		.loc 1 205 0
 307              		.cfi_startproc
 308              		@ args = 0, pretend = 0, frame = 0
 309              		@ frame_needed = 0, uses_anonymous_args = 0
 310 0000 08B5     		push	{r3, lr}
 311              		.cfi_def_cfa_offset 8
 312              		.cfi_offset 3, -8
 313              		.cfi_offset 14, -4
 206:main.c        ****     {
 314              		.loc 1 206 0
 315 0002 084B     		ldr	r3, .L28
 316 0004 5B78     		ldrb	r3, [r3, #1]	@ zero_extendqisi2
 317 0006 33B9     		cbnz	r3, .L25
 208:main.c        ****         driveState = HALF_STEP_DRIVE;
 318              		.loc 1 208 0
 319 0008 0748     		ldr	r0, .L28+4
 320 000a FFF7FEFF 		bl	UART_1_PutString
 321              	.LVL32:
 209:main.c        ****     }
 322              		.loc 1 209 0
 323 000e 0122     		movs	r2, #1
 324 0010 044B     		ldr	r3, .L28
 325 0012 5A70     		strb	r2, [r3, #1]
 326 0014 08BD     		pop	{r3, pc}
 327              	.L25:
 213:main.c        ****         driveState = WAVE_DRIVE;
ARM GAS  C:\Users\esben\AppData\Local\Temp\ccjXY94l.s 			page 14


 328              		.loc 1 213 0
 329 0016 0548     		ldr	r0, .L28+8
 330 0018 FFF7FEFF 		bl	UART_1_PutString
 331              	.LVL33:
 214:main.c        ****     }
 332              		.loc 1 214 0
 333 001c 0022     		movs	r2, #0
 334 001e 014B     		ldr	r3, .L28
 335 0020 5A70     		strb	r2, [r3, #1]
 336 0022 08BD     		pop	{r3, pc}
 337              	.L29:
 338              		.align	2
 339              	.L28:
 340 0024 00000000 		.word	.LANCHOR1
 341 0028 7C000000 		.word	.LC6
 342 002c 90000000 		.word	.LC7
 343              		.cfi_endproc
 344              	.LFE72:
 345              		.size	switchDriveState, .-switchDriveState
 346              		.section	.text.handleByteReceived,"ax",%progbits
 347              		.align	2
 348              		.global	handleByteReceived
 349              		.thumb
 350              		.thumb_func
 351              		.type	handleByteReceived, %function
 352              	handleByteReceived:
 353              	.LFB66:
 112:main.c        ****     switch(byteReceived)
 354              		.loc 1 112 0
 355              		.cfi_startproc
 356              		@ args = 0, pretend = 0, frame = 0
 357              		@ frame_needed = 0, uses_anonymous_args = 0
 358              	.LVL34:
 359 0000 08B5     		push	{r3, lr}
 360              		.cfi_def_cfa_offset 8
 361              		.cfi_offset 3, -8
 362              		.cfi_offset 14, -4
 113:main.c        ****     {
 363              		.loc 1 113 0
 364 0002 3228     		cmp	r0, #50
 365 0004 15D0     		beq	.L32
 366 0006 04D8     		bhi	.L33
 367 0008 3028     		cmp	r0, #48
 368 000a 15D0     		beq	.L34
 369 000c 3128     		cmp	r0, #49
 370 000e 0DD0     		beq	.L35
 371 0010 08BD     		pop	{r3, pc}
 372              	.L33:
 373 0012 7128     		cmp	r0, #113
 374 0014 04D0     		beq	.L36
 375 0016 7728     		cmp	r0, #119
 376 0018 05D0     		beq	.L37
 377 001a 6128     		cmp	r0, #97
 378 001c 11D1     		bne	.L30
 379 001e 0EE0     		b	.L38
 380              	.L36:
 117:main.c        ****         }
ARM GAS  C:\Users\esben\AppData\Local\Temp\ccjXY94l.s 			page 15


 381              		.loc 1 117 0
 382 0020 FFF7FEFF 		bl	decreaseSpeed
 383              	.LVL35:
 119:main.c        ****         case 'w' :
 384              		.loc 1 119 0
 385 0024 08BD     		pop	{r3, pc}
 386              	.LVL36:
 387              	.L37:
 122:main.c        ****         }
 388              		.loc 1 122 0
 389 0026 FFF7FEFF 		bl	increaseSpeed
 390              	.LVL37:
 124:main.c        ****         case '1' :
 391              		.loc 1 124 0
 392 002a 08BD     		pop	{r3, pc}
 393              	.LVL38:
 394              	.L35:
 127:main.c        ****         }
 395              		.loc 1 127 0
 396 002c FFF7FEFF 		bl	driveForwards
 397              	.LVL39:
 129:main.c        ****         case '2' :
 398              		.loc 1 129 0
 399 0030 08BD     		pop	{r3, pc}
 400              	.LVL40:
 401              	.L32:
 132:main.c        ****         }
 402              		.loc 1 132 0
 403 0032 FFF7FEFF 		bl	driveBackwards
 404              	.LVL41:
 134:main.c        ****         case '0' :
 405              		.loc 1 134 0
 406 0036 08BD     		pop	{r3, pc}
 407              	.LVL42:
 408              	.L34:
 137:main.c        ****             
 409              		.loc 1 137 0
 410 0038 FFF7FEFF 		bl	stop
 411              	.LVL43:
 140:main.c        ****         case 'a':
 412              		.loc 1 140 0
 413 003c 08BD     		pop	{r3, pc}
 414              	.LVL44:
 415              	.L38:
 143:main.c        ****         }
 416              		.loc 1 143 0
 417 003e FFF7FEFF 		bl	switchDriveState
 418              	.LVL45:
 419              	.L30:
 420 0042 08BD     		pop	{r3, pc}
 421              		.cfi_endproc
 422              	.LFE66:
 423              		.size	handleByteReceived, .-handleByteReceived
 424              		.section	.text.ISR_UART_rx_handler,"ax",%progbits
 425              		.align	2
 426              		.global	ISR_UART_rx_handler
 427              		.thumb
ARM GAS  C:\Users\esben\AppData\Local\Temp\ccjXY94l.s 			page 16


 428              		.thumb_func
 429              		.type	ISR_UART_rx_handler, %function
 430              	ISR_UART_rx_handler:
 431              	.LFB65:
  98:main.c        ****     uint8_t bytesToRead = UART_1_GetRxBufferSize();
 432              		.loc 1 98 0
 433              		.cfi_startproc
 434              		@ args = 0, pretend = 0, frame = 0
 435              		@ frame_needed = 0, uses_anonymous_args = 0
 436 0000 10B5     		push	{r4, lr}
 437              		.cfi_def_cfa_offset 8
 438              		.cfi_offset 4, -8
 439              		.cfi_offset 14, -4
  99:main.c        ****     while (bytesToRead > 0)
 440              		.loc 1 99 0
 441 0002 FFF7FEFF 		bl	UART_1_GetRxBufferSize
 442              	.LVL46:
 443 0006 0446     		mov	r4, r0
 444              	.LVL47:
 100:main.c        ****     {
 445              		.loc 1 100 0
 446 0008 05E0     		b	.L41
 447              	.L42:
 448              	.LBB2:
 102:main.c        ****         // UART_1_WriteTxData(byteReceived); // echo back
 449              		.loc 1 102 0
 450 000a FFF7FEFF 		bl	UART_1_ReadRxData
 451              	.LVL48:
 105:main.c        ****         
 452              		.loc 1 105 0
 453 000e FFF7FEFF 		bl	handleByteReceived
 454              	.LVL49:
 107:main.c        ****     }
 455              		.loc 1 107 0
 456 0012 013C     		subs	r4, r4, #1
 457              	.LVL50:
 458 0014 E4B2     		uxtb	r4, r4
 459              	.LVL51:
 460              	.L41:
 461              	.LBE2:
 100:main.c        ****     {
 462              		.loc 1 100 0
 463 0016 002C     		cmp	r4, #0
 464 0018 F7D1     		bne	.L42
 109:main.c        **** 
 465              		.loc 1 109 0
 466 001a 10BD     		pop	{r4, pc}
 467              		.cfi_endproc
 468              	.LFE65:
 469              		.size	ISR_UART_rx_handler, .-ISR_UART_rx_handler
 470              		.section	.text.drive,"ax",%progbits
 471              		.align	2
 472              		.global	drive
 473              		.thumb
 474              		.thumb_func
 475              		.type	drive, %function
 476              	drive:
ARM GAS  C:\Users\esben\AppData\Local\Temp\ccjXY94l.s 			page 17


 477              	.LFB73:
 219:main.c        ****     if (stepBool)
 478              		.loc 1 219 0
 479              		.cfi_startproc
 480              		@ args = 0, pretend = 0, frame = 0
 481              		@ frame_needed = 0, uses_anonymous_args = 0
 482 0000 08B5     		push	{r3, lr}
 483              		.cfi_def_cfa_offset 8
 484              		.cfi_offset 3, -8
 485              		.cfi_offset 14, -4
 220:main.c        ****     {
 486              		.loc 1 220 0
 487 0002 934B     		ldr	r3, .L80
 488 0004 1B78     		ldrb	r3, [r3]	@ zero_extendqisi2
 489 0006 002B     		cmp	r3, #0
 490 0008 00F01D81 		beq	.L45
 222:main.c        ****     {
 491              		.loc 1 222 0
 492 000c 914B     		ldr	r3, .L80+4
 493 000e 5B78     		ldrb	r3, [r3, #1]	@ zero_extendqisi2
 494 0010 002B     		cmp	r3, #0
 495 0012 40F08B80 		bne	.L46
 224:main.c        ****         {
 496              		.loc 1 224 0
 497 0016 8F4B     		ldr	r3, .L80+4
 498 0018 1B78     		ldrb	r3, [r3]	@ zero_extendqisi2
 499 001a 002B     		cmp	r3, #0
 500 001c 41D1     		bne	.L47
 226:main.c        ****             {
 501              		.loc 1 226 0
 502 001e 8D4B     		ldr	r3, .L80+4
 503 0020 9B78     		ldrb	r3, [r3, #2]	@ zero_extendqisi2
 504 0022 062B     		cmp	r3, #6
 505 0024 2DD8     		bhi	.L48
 506 0026 DFE803F0 		tbb	[pc, r3]
 507              	.L50:
 508 002a 04       		.byte	(.L49-.L50)/2
 509 002b 2C       		.byte	(.L48-.L50)/2
 510 002c 0E       		.byte	(.L51-.L50)/2
 511 002d 2C       		.byte	(.L48-.L50)/2
 512 002e 18       		.byte	(.L52-.L50)/2
 513 002f 2C       		.byte	(.L48-.L50)/2
 514 0030 22       		.byte	(.L53-.L50)/2
 515 0031 00       		.p2align 1
 516              	.L49:
 229:main.c        ****                     Pin_A2_Write(1);
 517              		.loc 1 229 0
 518 0032 0020     		movs	r0, #0
 519 0034 FFF7FEFF 		bl	Pin_A1_Write
 520              	.LVL52:
 230:main.c        ****                     stepState = A2;
 521              		.loc 1 230 0
 522 0038 0120     		movs	r0, #1
 523 003a FFF7FEFF 		bl	Pin_A2_Write
 524              	.LVL53:
 231:main.c        ****                     break;
 525              		.loc 1 231 0
ARM GAS  C:\Users\esben\AppData\Local\Temp\ccjXY94l.s 			page 18


 526 003e 0222     		movs	r2, #2
 527 0040 844B     		ldr	r3, .L80+4
 528 0042 9A70     		strb	r2, [r3, #2]
 232:main.c        ****                 case A2:
 529              		.loc 1 232 0
 530 0044 FFE0     		b	.L45
 531              	.L51:
 234:main.c        ****                     Pin_B1_Write(1);
 532              		.loc 1 234 0
 533 0046 0020     		movs	r0, #0
 534 0048 FFF7FEFF 		bl	Pin_A2_Write
 535              	.LVL54:
 235:main.c        ****                     stepState = B1;
 536              		.loc 1 235 0
 537 004c 0120     		movs	r0, #1
 538 004e FFF7FEFF 		bl	Pin_B1_Write
 539              	.LVL55:
 236:main.c        ****                     break;
 540              		.loc 1 236 0
 541 0052 0422     		movs	r2, #4
 542 0054 7F4B     		ldr	r3, .L80+4
 543 0056 9A70     		strb	r2, [r3, #2]
 237:main.c        ****                 case B1:
 544              		.loc 1 237 0
 545 0058 F5E0     		b	.L45
 546              	.L52:
 239:main.c        ****                     Pin_B2_Write(1);
 547              		.loc 1 239 0
 548 005a 0020     		movs	r0, #0
 549 005c FFF7FEFF 		bl	Pin_B1_Write
 550              	.LVL56:
 240:main.c        ****                     stepState = B2;
 551              		.loc 1 240 0
 552 0060 0120     		movs	r0, #1
 553 0062 FFF7FEFF 		bl	Pin_B2_Write
 554              	.LVL57:
 241:main.c        ****                     break;
 555              		.loc 1 241 0
 556 0066 0622     		movs	r2, #6
 557 0068 7A4B     		ldr	r3, .L80+4
 558 006a 9A70     		strb	r2, [r3, #2]
 242:main.c        ****                 case B2:
 559              		.loc 1 242 0
 560 006c EBE0     		b	.L45
 561              	.L53:
 244:main.c        ****                     Pin_A1_Write(1);
 562              		.loc 1 244 0
 563 006e 0020     		movs	r0, #0
 564 0070 FFF7FEFF 		bl	Pin_B2_Write
 565              	.LVL58:
 245:main.c        ****                     stepState = A1;
 566              		.loc 1 245 0
 567 0074 0120     		movs	r0, #1
 568 0076 FFF7FEFF 		bl	Pin_A1_Write
 569              	.LVL59:
 246:main.c        ****                     break;
 570              		.loc 1 246 0
ARM GAS  C:\Users\esben\AppData\Local\Temp\ccjXY94l.s 			page 19


 571 007a 0022     		movs	r2, #0
 572 007c 754B     		ldr	r3, .L80+4
 573 007e 9A70     		strb	r2, [r3, #2]
 247:main.c        ****                 default:
 574              		.loc 1 247 0
 575 0080 E1E0     		b	.L45
 576              	.L48:
 250:main.c        ****                     Pin_B2_Write(0);
 577              		.loc 1 250 0
 578 0082 0020     		movs	r0, #0
 579 0084 FFF7FEFF 		bl	Pin_B1_Write
 580              	.LVL60:
 251:main.c        ****                     Pin_A2_Write(0);
 581              		.loc 1 251 0
 582 0088 0020     		movs	r0, #0
 583 008a FFF7FEFF 		bl	Pin_B2_Write
 584              	.LVL61:
 252:main.c        ****                     Pin_A1_Write(1);
 585              		.loc 1 252 0
 586 008e 0020     		movs	r0, #0
 587 0090 FFF7FEFF 		bl	Pin_A2_Write
 588              	.LVL62:
 253:main.c        ****                     stepState = A1;
 589              		.loc 1 253 0
 590 0094 0120     		movs	r0, #1
 591 0096 FFF7FEFF 		bl	Pin_A1_Write
 592              	.LVL63:
 254:main.c        ****                     break;
 593              		.loc 1 254 0
 594 009a 0022     		movs	r2, #0
 595 009c 6D4B     		ldr	r3, .L80+4
 596 009e 9A70     		strb	r2, [r3, #2]
 255:main.c        ****             }
 597              		.loc 1 255 0
 598 00a0 D1E0     		b	.L45
 599              	.L47:
 258:main.c        ****         {
 600              		.loc 1 258 0
 601 00a2 012B     		cmp	r3, #1
 602 00a4 40F0CF80 		bne	.L45
 260:main.c        ****             {
 603              		.loc 1 260 0
 604 00a8 6A4B     		ldr	r3, .L80+4
 605 00aa 9B78     		ldrb	r3, [r3, #2]	@ zero_extendqisi2
 606 00ac 062B     		cmp	r3, #6
 607 00ae 2DD8     		bhi	.L54
 608 00b0 DFE803F0 		tbb	[pc, r3]
 609              	.L56:
 610 00b4 04       		.byte	(.L55-.L56)/2
 611 00b5 2C       		.byte	(.L54-.L56)/2
 612 00b6 0E       		.byte	(.L57-.L56)/2
 613 00b7 2C       		.byte	(.L54-.L56)/2
 614 00b8 18       		.byte	(.L58-.L56)/2
 615 00b9 2C       		.byte	(.L54-.L56)/2
 616 00ba 22       		.byte	(.L59-.L56)/2
 617 00bb 00       		.p2align 1
 618              	.L55:
ARM GAS  C:\Users\esben\AppData\Local\Temp\ccjXY94l.s 			page 20


 263:main.c        ****                     Pin_B2_Write(1);
 619              		.loc 1 263 0
 620 00bc 0020     		movs	r0, #0
 621 00be FFF7FEFF 		bl	Pin_A1_Write
 622              	.LVL64:
 264:main.c        ****                     stepState = B2;
 623              		.loc 1 264 0
 624 00c2 0120     		movs	r0, #1
 625 00c4 FFF7FEFF 		bl	Pin_B2_Write
 626              	.LVL65:
 265:main.c        ****                     break;
 627              		.loc 1 265 0
 628 00c8 0622     		movs	r2, #6
 629 00ca 624B     		ldr	r3, .L80+4
 630 00cc 9A70     		strb	r2, [r3, #2]
 266:main.c        ****                 case A2:
 631              		.loc 1 266 0
 632 00ce BAE0     		b	.L45
 633              	.L57:
 268:main.c        ****                     Pin_A1_Write(1);
 634              		.loc 1 268 0
 635 00d0 0020     		movs	r0, #0
 636 00d2 FFF7FEFF 		bl	Pin_A2_Write
 637              	.LVL66:
 269:main.c        ****                     stepState = A1;
 638              		.loc 1 269 0
 639 00d6 0120     		movs	r0, #1
 640 00d8 FFF7FEFF 		bl	Pin_A1_Write
 641              	.LVL67:
 270:main.c        ****                     break;
 642              		.loc 1 270 0
 643 00dc 0022     		movs	r2, #0
 644 00de 5D4B     		ldr	r3, .L80+4
 645 00e0 9A70     		strb	r2, [r3, #2]
 271:main.c        ****                 case B1:
 646              		.loc 1 271 0
 647 00e2 B0E0     		b	.L45
 648              	.L58:
 273:main.c        ****                     Pin_A2_Write(1);
 649              		.loc 1 273 0
 650 00e4 0020     		movs	r0, #0
 651 00e6 FFF7FEFF 		bl	Pin_B1_Write
 652              	.LVL68:
 274:main.c        ****                     stepState = A2;
 653              		.loc 1 274 0
 654 00ea 0120     		movs	r0, #1
 655 00ec FFF7FEFF 		bl	Pin_A2_Write
 656              	.LVL69:
 275:main.c        ****                     break;
 657              		.loc 1 275 0
 658 00f0 0222     		movs	r2, #2
 659 00f2 584B     		ldr	r3, .L80+4
 660 00f4 9A70     		strb	r2, [r3, #2]
 276:main.c        ****                 case B2:
 661              		.loc 1 276 0
 662 00f6 A6E0     		b	.L45
 663              	.L59:
ARM GAS  C:\Users\esben\AppData\Local\Temp\ccjXY94l.s 			page 21


 278:main.c        ****                     Pin_B1_Write(1);
 664              		.loc 1 278 0
 665 00f8 0020     		movs	r0, #0
 666 00fa FFF7FEFF 		bl	Pin_B2_Write
 667              	.LVL70:
 279:main.c        ****                     stepState = B1;
 668              		.loc 1 279 0
 669 00fe 0120     		movs	r0, #1
 670 0100 FFF7FEFF 		bl	Pin_B1_Write
 671              	.LVL71:
 280:main.c        ****                     break;
 672              		.loc 1 280 0
 673 0104 0422     		movs	r2, #4
 674 0106 534B     		ldr	r3, .L80+4
 675 0108 9A70     		strb	r2, [r3, #2]
 281:main.c        ****                 default:
 676              		.loc 1 281 0
 677 010a 9CE0     		b	.L45
 678              	.L54:
 284:main.c        ****                     Pin_B2_Write(0);
 679              		.loc 1 284 0
 680 010c 0020     		movs	r0, #0
 681 010e FFF7FEFF 		bl	Pin_B1_Write
 682              	.LVL72:
 285:main.c        ****                     Pin_A2_Write(0);
 683              		.loc 1 285 0
 684 0112 0020     		movs	r0, #0
 685 0114 FFF7FEFF 		bl	Pin_B2_Write
 686              	.LVL73:
 286:main.c        ****                     Pin_A1_Write(1);
 687              		.loc 1 286 0
 688 0118 0020     		movs	r0, #0
 689 011a FFF7FEFF 		bl	Pin_A2_Write
 690              	.LVL74:
 287:main.c        ****                     stepState = A1;
 691              		.loc 1 287 0
 692 011e 0120     		movs	r0, #1
 693 0120 FFF7FEFF 		bl	Pin_A1_Write
 694              	.LVL75:
 288:main.c        ****                     break;
 695              		.loc 1 288 0
 696 0124 0022     		movs	r2, #0
 697 0126 4B4B     		ldr	r3, .L80+4
 698 0128 9A70     		strb	r2, [r3, #2]
 289:main.c        ****             }
 699              		.loc 1 289 0
 700 012a 8CE0     		b	.L45
 701              	.L46:
 294:main.c        ****     {
 702              		.loc 1 294 0
 703 012c 012B     		cmp	r3, #1
 704 012e 40F08A80 		bne	.L45
 296:main.c        ****         {
 705              		.loc 1 296 0
 706 0132 484B     		ldr	r3, .L80+4
 707 0134 1B78     		ldrb	r3, [r3]	@ zero_extendqisi2
 708 0136 002B     		cmp	r3, #0
ARM GAS  C:\Users\esben\AppData\Local\Temp\ccjXY94l.s 			page 22


 709 0138 42D1     		bne	.L60
 298:main.c        ****             {
 710              		.loc 1 298 0
 711 013a 464B     		ldr	r3, .L80+4
 712 013c 9B78     		ldrb	r3, [r3, #2]	@ zero_extendqisi2
 713 013e 072B     		cmp	r3, #7
 714 0140 00F28180 		bhi	.L45
 715 0144 DFE803F0 		tbb	[pc, r3]
 716              	.L62:
 717 0148 04       		.byte	(.L61-.L62)/2
 718 0149 0B       		.byte	(.L63-.L62)/2
 719 014a 12       		.byte	(.L64-.L62)/2
 720 014b 19       		.byte	(.L65-.L62)/2
 721 014c 20       		.byte	(.L66-.L62)/2
 722 014d 27       		.byte	(.L67-.L62)/2
 723 014e 2E       		.byte	(.L68-.L62)/2
 724 014f 35       		.byte	(.L69-.L62)/2
 725              		.p2align 1
 726              	.L61:
 301:main.c        ****                     stepState = A1A2;
 727              		.loc 1 301 0
 728 0150 0120     		movs	r0, #1
 729 0152 FFF7FEFF 		bl	Pin_A2_Write
 730              	.LVL76:
 302:main.c        ****                     break;
 731              		.loc 1 302 0
 732 0156 0122     		movs	r2, #1
 733 0158 3E4B     		ldr	r3, .L80+4
 734 015a 9A70     		strb	r2, [r3, #2]
 303:main.c        ****                 case A1A2:
 735              		.loc 1 303 0
 736 015c 73E0     		b	.L45
 737              	.L63:
 305:main.c        ****                     stepState = A2;
 738              		.loc 1 305 0
 739 015e 0020     		movs	r0, #0
 740 0160 FFF7FEFF 		bl	Pin_A1_Write
 741              	.LVL77:
 306:main.c        ****                     break;
 742              		.loc 1 306 0
 743 0164 0222     		movs	r2, #2
 744 0166 3B4B     		ldr	r3, .L80+4
 745 0168 9A70     		strb	r2, [r3, #2]
 307:main.c        ****                 case A2:
 746              		.loc 1 307 0
 747 016a 6CE0     		b	.L45
 748              	.L64:
 309:main.c        ****                     stepState = A2B1;
 749              		.loc 1 309 0
 750 016c 0120     		movs	r0, #1
 751 016e FFF7FEFF 		bl	Pin_B1_Write
 752              	.LVL78:
 310:main.c        ****                     break;
 753              		.loc 1 310 0
 754 0172 0322     		movs	r2, #3
 755 0174 374B     		ldr	r3, .L80+4
 756 0176 9A70     		strb	r2, [r3, #2]
ARM GAS  C:\Users\esben\AppData\Local\Temp\ccjXY94l.s 			page 23


 311:main.c        ****                 case A2B1:
 757              		.loc 1 311 0
 758 0178 65E0     		b	.L45
 759              	.L65:
 313:main.c        ****                     stepState = B1;
 760              		.loc 1 313 0
 761 017a 0020     		movs	r0, #0
 762 017c FFF7FEFF 		bl	Pin_A2_Write
 763              	.LVL79:
 314:main.c        ****                     break;
 764              		.loc 1 314 0
 765 0180 0422     		movs	r2, #4
 766 0182 344B     		ldr	r3, .L80+4
 767 0184 9A70     		strb	r2, [r3, #2]
 315:main.c        ****                 case B1:
 768              		.loc 1 315 0
 769 0186 5EE0     		b	.L45
 770              	.L66:
 317:main.c        ****                     stepState = B1B2;
 771              		.loc 1 317 0
 772 0188 0120     		movs	r0, #1
 773 018a FFF7FEFF 		bl	Pin_B2_Write
 774              	.LVL80:
 318:main.c        ****                     break;
 775              		.loc 1 318 0
 776 018e 0522     		movs	r2, #5
 777 0190 304B     		ldr	r3, .L80+4
 778 0192 9A70     		strb	r2, [r3, #2]
 319:main.c        ****                 case B1B2:
 779              		.loc 1 319 0
 780 0194 57E0     		b	.L45
 781              	.L67:
 321:main.c        ****                     stepState = B2;
 782              		.loc 1 321 0
 783 0196 0020     		movs	r0, #0
 784 0198 FFF7FEFF 		bl	Pin_B1_Write
 785              	.LVL81:
 322:main.c        ****                     break;
 786              		.loc 1 322 0
 787 019c 0622     		movs	r2, #6
 788 019e 2D4B     		ldr	r3, .L80+4
 789 01a0 9A70     		strb	r2, [r3, #2]
 323:main.c        ****                 case B2:
 790              		.loc 1 323 0
 791 01a2 50E0     		b	.L45
 792              	.L68:
 325:main.c        ****                     stepState = B2A1;
 793              		.loc 1 325 0
 794 01a4 0120     		movs	r0, #1
 795 01a6 FFF7FEFF 		bl	Pin_A1_Write
 796              	.LVL82:
 326:main.c        ****                     break;
 797              		.loc 1 326 0
 798 01aa 0722     		movs	r2, #7
 799 01ac 294B     		ldr	r3, .L80+4
 800 01ae 9A70     		strb	r2, [r3, #2]
 327:main.c        ****                 case B2A1:
ARM GAS  C:\Users\esben\AppData\Local\Temp\ccjXY94l.s 			page 24


 801              		.loc 1 327 0
 802 01b0 49E0     		b	.L45
 803              	.L69:
 329:main.c        ****                     stepState = A1;
 804              		.loc 1 329 0
 805 01b2 0020     		movs	r0, #0
 806 01b4 FFF7FEFF 		bl	Pin_B2_Write
 807              	.LVL83:
 330:main.c        ****                     break;
 808              		.loc 1 330 0
 809 01b8 0022     		movs	r2, #0
 810 01ba 264B     		ldr	r3, .L80+4
 811 01bc 9A70     		strb	r2, [r3, #2]
 331:main.c        ****             }    
 812              		.loc 1 331 0
 813 01be 42E0     		b	.L45
 814              	.L60:
 334:main.c        ****         {
 815              		.loc 1 334 0
 816 01c0 012B     		cmp	r3, #1
 817 01c2 40D1     		bne	.L45
 336:main.c        ****             {
 818              		.loc 1 336 0
 819 01c4 234B     		ldr	r3, .L80+4
 820 01c6 9B78     		ldrb	r3, [r3, #2]	@ zero_extendqisi2
 821 01c8 072B     		cmp	r3, #7
 822 01ca 3CD8     		bhi	.L45
 823 01cc DFE803F0 		tbb	[pc, r3]
 824              	.L71:
 825 01d0 04       		.byte	(.L70-.L71)/2
 826 01d1 0B       		.byte	(.L72-.L71)/2
 827 01d2 12       		.byte	(.L73-.L71)/2
 828 01d3 19       		.byte	(.L74-.L71)/2
 829 01d4 20       		.byte	(.L75-.L71)/2
 830 01d5 27       		.byte	(.L76-.L71)/2
 831 01d6 2E       		.byte	(.L77-.L71)/2
 832 01d7 35       		.byte	(.L78-.L71)/2
 833              		.p2align 1
 834              	.L70:
 339:main.c        ****                     stepState = B2A1;
 835              		.loc 1 339 0
 836 01d8 0120     		movs	r0, #1
 837 01da FFF7FEFF 		bl	Pin_B2_Write
 838              	.LVL84:
 340:main.c        ****                     break;
 839              		.loc 1 340 0
 840 01de 0722     		movs	r2, #7
 841 01e0 1C4B     		ldr	r3, .L80+4
 842 01e2 9A70     		strb	r2, [r3, #2]
 341:main.c        ****                 case A1A2:
 843              		.loc 1 341 0
 844 01e4 2FE0     		b	.L45
 845              	.L72:
 343:main.c        ****                     stepState = A1;
 846              		.loc 1 343 0
 847 01e6 0020     		movs	r0, #0
 848 01e8 FFF7FEFF 		bl	Pin_A2_Write
ARM GAS  C:\Users\esben\AppData\Local\Temp\ccjXY94l.s 			page 25


 849              	.LVL85:
 344:main.c        ****                     break;
 850              		.loc 1 344 0
 851 01ec 0022     		movs	r2, #0
 852 01ee 194B     		ldr	r3, .L80+4
 853 01f0 9A70     		strb	r2, [r3, #2]
 345:main.c        ****                 case A2:
 854              		.loc 1 345 0
 855 01f2 28E0     		b	.L45
 856              	.L73:
 347:main.c        ****                     stepState = A1A2;
 857              		.loc 1 347 0
 858 01f4 0120     		movs	r0, #1
 859 01f6 FFF7FEFF 		bl	Pin_A1_Write
 860              	.LVL86:
 348:main.c        ****                     break;
 861              		.loc 1 348 0
 862 01fa 0122     		movs	r2, #1
 863 01fc 154B     		ldr	r3, .L80+4
 864 01fe 9A70     		strb	r2, [r3, #2]
 349:main.c        ****                 case A2B1:
 865              		.loc 1 349 0
 866 0200 21E0     		b	.L45
 867              	.L74:
 351:main.c        ****                     stepState = A2;
 868              		.loc 1 351 0
 869 0202 0020     		movs	r0, #0
 870 0204 FFF7FEFF 		bl	Pin_B1_Write
 871              	.LVL87:
 352:main.c        ****                     break;
 872              		.loc 1 352 0
 873 0208 0222     		movs	r2, #2
 874 020a 124B     		ldr	r3, .L80+4
 875 020c 9A70     		strb	r2, [r3, #2]
 353:main.c        ****                 case B1:
 876              		.loc 1 353 0
 877 020e 1AE0     		b	.L45
 878              	.L75:
 355:main.c        ****                     stepState = A2B1;
 879              		.loc 1 355 0
 880 0210 0120     		movs	r0, #1
 881 0212 FFF7FEFF 		bl	Pin_A2_Write
 882              	.LVL88:
 356:main.c        ****                     break;
 883              		.loc 1 356 0
 884 0216 0322     		movs	r2, #3
 885 0218 0E4B     		ldr	r3, .L80+4
 886 021a 9A70     		strb	r2, [r3, #2]
 357:main.c        ****                 case B1B2:
 887              		.loc 1 357 0
 888 021c 13E0     		b	.L45
 889              	.L76:
 359:main.c        ****                     stepState = B1;
 890              		.loc 1 359 0
 891 021e 0020     		movs	r0, #0
 892 0220 FFF7FEFF 		bl	Pin_B2_Write
 893              	.LVL89:
ARM GAS  C:\Users\esben\AppData\Local\Temp\ccjXY94l.s 			page 26


 360:main.c        ****                     break;
 894              		.loc 1 360 0
 895 0224 0422     		movs	r2, #4
 896 0226 0B4B     		ldr	r3, .L80+4
 897 0228 9A70     		strb	r2, [r3, #2]
 361:main.c        ****                 case B2:
 898              		.loc 1 361 0
 899 022a 0CE0     		b	.L45
 900              	.L77:
 363:main.c        ****                     stepState = B1B2;
 901              		.loc 1 363 0
 902 022c 0120     		movs	r0, #1
 903 022e FFF7FEFF 		bl	Pin_B1_Write
 904              	.LVL90:
 364:main.c        ****                     break;
 905              		.loc 1 364 0
 906 0232 0522     		movs	r2, #5
 907 0234 074B     		ldr	r3, .L80+4
 908 0236 9A70     		strb	r2, [r3, #2]
 365:main.c        ****                 case B2A1:
 909              		.loc 1 365 0
 910 0238 05E0     		b	.L45
 911              	.L78:
 367:main.c        ****                     stepState = B2;
 912              		.loc 1 367 0
 913 023a 0020     		movs	r0, #0
 914 023c FFF7FEFF 		bl	Pin_A1_Write
 915              	.LVL91:
 368:main.c        ****                     break;
 916              		.loc 1 368 0
 917 0240 0622     		movs	r2, #6
 918 0242 044B     		ldr	r3, .L80+4
 919 0244 9A70     		strb	r2, [r3, #2]
 920              	.L45:
 374:main.c        ****     
 921              		.loc 1 374 0
 922 0246 0022     		movs	r2, #0
 923 0248 014B     		ldr	r3, .L80
 924 024a 1A70     		strb	r2, [r3]
 925 024c 08BD     		pop	{r3, pc}
 926              	.L81:
 927 024e 00BF     		.align	2
 928              	.L80:
 929 0250 00000000 		.word	.LANCHOR0
 930 0254 00000000 		.word	.LANCHOR1
 931              		.cfi_endproc
 932              	.LFE73:
 933              		.size	drive, .-drive
 934              		.section	.text.main,"ax",%progbits
 935              		.align	2
 936              		.global	main
 937              		.thumb
 938              		.thumb_func
 939              		.type	main, %function
 940              	main:
 941              	.LFB64:
  60:main.c        ****     CyGlobalIntEnable; /* Enable global interrupts. */
ARM GAS  C:\Users\esben\AppData\Local\Temp\ccjXY94l.s 			page 27


 942              		.loc 1 60 0
 943              		.cfi_startproc
 944              		@ args = 0, pretend = 0, frame = 256
 945              		@ frame_needed = 0, uses_anonymous_args = 0
 946 0000 00B5     		push	{lr}
 947              		.cfi_def_cfa_offset 4
 948              		.cfi_offset 14, -4
 949 0002 C3B0     		sub	sp, sp, #268
 950              		.cfi_def_cfa_offset 272
  61:main.c        **** 
 951              		.loc 1 61 0
 952              		.syntax unified
 953              	@ 61 "main.c" 1
 954 0004 62B6     		CPSIE   i
 955              	@ 0 "" 2
  66:main.c        ****     isr_timer_StartEx(ISR_Timer);
 956              		.loc 1 66 0
 957              		.thumb
 958              		.syntax unified
 959 0006 1C48     		ldr	r0, .L85
 960 0008 FFF7FEFF 		bl	isr_uart_rx_StartEx
 961              	.LVL92:
  67:main.c        ****     Timer_1_Start();
 962              		.loc 1 67 0
 963 000c 1B48     		ldr	r0, .L85+4
 964 000e FFF7FEFF 		bl	isr_timer_StartEx
 965              	.LVL93:
  68:main.c        ****     UART_1_Start();
 966              		.loc 1 68 0
 967 0012 FFF7FEFF 		bl	Timer_1_Start
 968              	.LVL94:
  69:main.c        ****     
 969              		.loc 1 69 0
 970 0016 FFF7FEFF 		bl	UART_1_Start
 971              	.LVL95:
  71:main.c        ****     UART_1_PutString("0: Stop\r\n");
 972              		.loc 1 71 0
 973 001a 1948     		ldr	r0, .L85+8
 974 001c FFF7FEFF 		bl	UART_1_PutString
 975              	.LVL96:
  72:main.c        ****     UART_1_PutString("1: Drive forwards\r\n");
 976              		.loc 1 72 0
 977 0020 1848     		ldr	r0, .L85+12
 978 0022 FFF7FEFF 		bl	UART_1_PutString
 979              	.LVL97:
  73:main.c        ****     UART_1_PutString("2: Drive backwards\r\n");
 980              		.loc 1 73 0
 981 0026 1848     		ldr	r0, .L85+16
 982 0028 FFF7FEFF 		bl	UART_1_PutString
 983              	.LVL98:
  74:main.c        ****     UART_1_PutString("q: Decrease speed\r\n");
 984              		.loc 1 74 0
 985 002c 1748     		ldr	r0, .L85+20
 986 002e FFF7FEFF 		bl	UART_1_PutString
 987              	.LVL99:
  75:main.c        ****     UART_1_PutString("w: Increase speed\r\n");
 988              		.loc 1 75 0
ARM GAS  C:\Users\esben\AppData\Local\Temp\ccjXY94l.s 			page 28


 989 0032 1748     		ldr	r0, .L85+24
 990 0034 FFF7FEFF 		bl	UART_1_PutString
 991              	.LVL100:
  76:main.c        ****     UART_1_PutString("a: Select drive state\r\n");
 992              		.loc 1 76 0
 993 0038 1648     		ldr	r0, .L85+28
 994 003a FFF7FEFF 		bl	UART_1_PutString
 995              	.LVL101:
  77:main.c        ****     
 996              		.loc 1 77 0
 997 003e 1648     		ldr	r0, .L85+32
 998 0040 FFF7FEFF 		bl	UART_1_PutString
 999              	.LVL102:
  79:main.c        ****     stepState = A1;
 1000              		.loc 1 79 0
 1001 0044 154B     		ldr	r3, .L85+36
 1002 0046 0022     		movs	r2, #0
 1003 0048 5A70     		strb	r2, [r3, #1]
  80:main.c        ****     directionState = FORWARDS;
 1004              		.loc 1 80 0
 1005 004a 9A70     		strb	r2, [r3, #2]
  81:main.c        ****     char debugBuffer[256]; 
 1006              		.loc 1 81 0
 1007 004c 1A70     		strb	r2, [r3]
  84:main.c        ****     
 1008              		.loc 1 84 0
 1009 004e 0122     		movs	r2, #1
 1010 0050 134B     		ldr	r3, .L85+40
 1011 0052 1A70     		strb	r2, [r3]
 1012              	.L83:
  89:main.c        ****         //CyDelay(500);
 1013              		.loc 1 89 0 discriminator 1
 1014 0054 FFF7FEFF 		bl	drive
 1015              	.LVL103:
  91:main.c        ****             driveState, stepState, directionState);
 1016              		.loc 1 91 0 discriminator 1
 1017 0058 104A     		ldr	r2, .L85+36
 1018 005a 5378     		ldrb	r3, [r2, #1]	@ zero_extendqisi2
 1019 005c 1178     		ldrb	r1, [r2]	@ zero_extendqisi2
 1020 005e 0191     		str	r1, [sp, #4]
 1021 0060 9278     		ldrb	r2, [r2, #2]	@ zero_extendqisi2
 1022 0062 0092     		str	r2, [sp]
 1023 0064 0F4A     		ldr	r2, .L85+44
 1024 0066 4FF48071 		mov	r1, #256
 1025 006a 02A8     		add	r0, sp, #8
 1026 006c FFF7FEFF 		bl	snprintf
 1027              	.LVL104:
  93:main.c        ****     }
 1028              		.loc 1 93 0 discriminator 1
 1029 0070 02A8     		add	r0, sp, #8
 1030 0072 FFF7FEFF 		bl	UART_1_PutString
 1031              	.LVL105:
 1032 0076 EDE7     		b	.L83
 1033              	.L86:
 1034              		.align	2
 1035              	.L85:
 1036 0078 00000000 		.word	ISR_UART_rx_handler
ARM GAS  C:\Users\esben\AppData\Local\Temp\ccjXY94l.s 			page 29


 1037 007c 00000000 		.word	ISR_Timer
 1038 0080 A0000000 		.word	.LC8
 1039 0084 C4000000 		.word	.LC9
 1040 0088 D0000000 		.word	.LC10
 1041 008c E4000000 		.word	.LC11
 1042 0090 FC000000 		.word	.LC12
 1043 0094 10010000 		.word	.LC13
 1044 0098 24010000 		.word	.LC14
 1045 009c 00000000 		.word	.LANCHOR1
 1046 00a0 00000000 		.word	.LANCHOR0
 1047 00a4 3C010000 		.word	.LC15
 1048              		.cfi_endproc
 1049              	.LFE64:
 1050              		.size	main, .-main
 1051              		.data
 1052              		.set	.LANCHOR0,. + 0
 1053              		.type	stepBool, %object
 1054              		.size	stepBool, 1
 1055              	stepBool:
 1056 0000 01       		.byte	1
 1057              		.section	.rodata.str1.4,"aMS",%progbits,1
 1058              		.align	2
 1059              	.LC0:
 1060 0000 44656372 		.ascii	"Decreasing speed\012\015\000"
 1060      65617369 
 1060      6E672073 
 1060      70656564 
 1060      0A0D00
 1061 0013 00       		.space	1
 1062              	.LC1:
 1063 0014 42797465 		.ascii	"Bytes read: %d\015\012\000"
 1063      73207265 
 1063      61643A20 
 1063      25640D0A 
 1063      00
 1064 0025 000000   		.space	3
 1065              	.LC2:
 1066 0028 496E6372 		.ascii	"Increasing speed\012\015\000"
 1066      65617369 
 1066      6E672073 
 1066      70656564 
 1066      0A0D00
 1067 003b 00       		.space	1
 1068              	.LC3:
 1069 003c 53657420 		.ascii	"Set direction: forwards\012\015\000"
 1069      64697265 
 1069      6374696F 
 1069      6E3A2066 
 1069      6F727761 
 1070 0056 0000     		.space	2
 1071              	.LC4:
 1072 0058 53657420 		.ascii	"Set direction: backwards\012\015\000"
 1072      64697265 
 1072      6374696F 
 1072      6E3A2062 
 1072      61636B77 
 1073 0073 00       		.space	1
ARM GAS  C:\Users\esben\AppData\Local\Temp\ccjXY94l.s 			page 30


 1074              	.LC5:
 1075 0074 53746F70 		.ascii	"Stop\012\015\000"
 1075      0A0D00
 1076 007b 00       		.space	1
 1077              	.LC6:
 1078 007c 48616C66 		.ascii	"Half Step Drive\012\015\000"
 1078      20537465 
 1078      70204472 
 1078      6976650A 
 1078      0D00
 1079 008e 0000     		.space	2
 1080              	.LC7:
 1081 0090 0D576176 		.ascii	"\015Wave Drive\012\015\000"
 1081      65204472 
 1081      6976650A 
 1081      0D00
 1082 009e 0000     		.space	2
 1083              	.LC8:
 1084 00a0 44432D4D 		.ascii	"DC-Motor-PWM application started\015\012\000"
 1084      6F746F72 
 1084      2D50574D 
 1084      20617070 
 1084      6C696361 
 1085 00c3 00       		.space	1
 1086              	.LC9:
 1087 00c4 303A2053 		.ascii	"0: Stop\015\012\000"
 1087      746F700D 
 1087      0A00
 1088 00ce 0000     		.space	2
 1089              	.LC10:
 1090 00d0 313A2044 		.ascii	"1: Drive forwards\015\012\000"
 1090      72697665 
 1090      20666F72 
 1090      77617264 
 1090      730D0A00 
 1091              	.LC11:
 1092 00e4 323A2044 		.ascii	"2: Drive backwards\015\012\000"
 1092      72697665 
 1092      20626163 
 1092      6B776172 
 1092      64730D0A 
 1093 00f9 000000   		.space	3
 1094              	.LC12:
 1095 00fc 713A2044 		.ascii	"q: Decrease speed\015\012\000"
 1095      65637265 
 1095      61736520 
 1095      73706565 
 1095      640D0A00 
 1096              	.LC13:
 1097 0110 773A2049 		.ascii	"w: Increase speed\015\012\000"
 1097      6E637265 
 1097      61736520 
 1097      73706565 
 1097      640D0A00 
 1098              	.LC14:
 1099 0124 613A2053 		.ascii	"a: Select drive state\015\012\000"
 1099      656C6563 
ARM GAS  C:\Users\esben\AppData\Local\Temp\ccjXY94l.s 			page 31


 1099      74206472 
 1099      69766520 
 1099      73746174 
 1100              	.LC15:
 1101 013c 0D447269 		.ascii	"\015DriveState %d  Step: %d Direction %d\000"
 1101      76655374 
 1101      61746520 
 1101      25642020 
 1101      53746570 
 1102              		.bss
 1103              		.set	.LANCHOR1,. + 0
 1104              		.type	directionState, %object
 1105              		.size	directionState, 1
 1106              	directionState:
 1107 0000 00       		.space	1
 1108              		.type	driveState, %object
 1109              		.size	driveState, 1
 1110              	driveState:
 1111 0001 00       		.space	1
 1112              		.type	stepState, %object
 1113              		.size	stepState, 1
 1114              	stepState:
 1115 0002 00       		.space	1
 1116              		.text
 1117              	.Letext0:
 1118              		.file 2 "c:\\program files (x86)\\cypress\\psoc creator\\4.4\\psoc creator\\import\\gnu\\arm\\5.4.
 1119              		.file 3 "c:\\program files (x86)\\cypress\\psoc creator\\4.4\\psoc creator\\import\\gnu\\arm\\5.4.
 1120              		.file 4 "Generated_Source\\PSoC5/UART_1.h"
 1121              		.file 5 "Generated_Source\\PSoC5/Timer_1.h"
 1122              		.file 6 "c:\\program files (x86)\\cypress\\psoc creator\\4.4\\psoc creator\\import\\gnu\\arm\\5.4.
 1123              		.file 7 "Generated_Source\\PSoC5/Pin_A1.h"
 1124              		.file 8 "Generated_Source\\PSoC5/Pin_A2.h"
 1125              		.file 9 "Generated_Source\\PSoC5/Pin_B1.h"
 1126              		.file 10 "Generated_Source\\PSoC5/Pin_B2.h"
 1127              		.file 11 "Generated_Source\\PSoC5/isr_uart_rx.h"
 1128              		.file 12 "Generated_Source\\PSoC5/isr_timer.h"
 1129              		.file 13 "Generated_Source\\PSoC5/core_cm3.h"